
rtarget：     文件格式 elf64-x86-64


Disassembly of section .init:

0000000000401000 <_init>:
  401000:	48 83 ec 08          	sub    $0x8,%rsp
  401004:	48 8b 05 ed 5f 00 00 	mov    0x5fed(%rip),%rax        # 406ff8 <__gmon_start__>
  40100b:	48 85 c0             	test   %rax,%rax
  40100e:	74 02                	je     401012 <_init+0x12>
  401010:	ff d0                	call   *%rax
  401012:	48 83 c4 08          	add    $0x8,%rsp
  401016:	c3                   	ret

Disassembly of section .plt:

0000000000401020 <.plt>:
  401020:	ff 35 e2 5f 00 00    	push   0x5fe2(%rip)        # 407008 <_GLOBAL_OFFSET_TABLE_+0x8>
  401026:	ff 25 e4 5f 00 00    	jmp    *0x5fe4(%rip)        # 407010 <_GLOBAL_OFFSET_TABLE_+0x10>
  40102c:	0f 1f 40 00          	nopl   0x0(%rax)

0000000000401030 <strcasecmp@plt>:
  401030:	ff 25 e2 5f 00 00    	jmp    *0x5fe2(%rip)        # 407018 <strcasecmp@GLIBC_2.2.5>
  401036:	68 00 00 00 00       	push   $0x0
  40103b:	e9 e0 ff ff ff       	jmp    401020 <.plt>

0000000000401040 <__errno_location@plt>:
  401040:	ff 25 da 5f 00 00    	jmp    *0x5fda(%rip)        # 407020 <__errno_location@GLIBC_2.2.5>
  401046:	68 01 00 00 00       	push   $0x1
  40104b:	e9 d0 ff ff ff       	jmp    401020 <.plt>

0000000000401050 <srandom@plt>:
  401050:	ff 25 d2 5f 00 00    	jmp    *0x5fd2(%rip)        # 407028 <srandom@GLIBC_2.2.5>
  401056:	68 02 00 00 00       	push   $0x2
  40105b:	e9 c0 ff ff ff       	jmp    401020 <.plt>

0000000000401060 <strncmp@plt>:
  401060:	ff 25 ca 5f 00 00    	jmp    *0x5fca(%rip)        # 407030 <strncmp@GLIBC_2.2.5>
  401066:	68 03 00 00 00       	push   $0x3
  40106b:	e9 b0 ff ff ff       	jmp    401020 <.plt>

0000000000401070 <strcpy@plt>:
  401070:	ff 25 c2 5f 00 00    	jmp    *0x5fc2(%rip)        # 407038 <strcpy@GLIBC_2.2.5>
  401076:	68 04 00 00 00       	push   $0x4
  40107b:	e9 a0 ff ff ff       	jmp    401020 <.plt>

0000000000401080 <puts@plt>:
  401080:	ff 25 ba 5f 00 00    	jmp    *0x5fba(%rip)        # 407040 <puts@GLIBC_2.2.5>
  401086:	68 05 00 00 00       	push   $0x5
  40108b:	e9 90 ff ff ff       	jmp    401020 <.plt>

0000000000401090 <write@plt>:
  401090:	ff 25 b2 5f 00 00    	jmp    *0x5fb2(%rip)        # 407048 <write@GLIBC_2.2.5>
  401096:	68 06 00 00 00       	push   $0x6
  40109b:	e9 80 ff ff ff       	jmp    401020 <.plt>

00000000004010a0 <strlen@plt>:
  4010a0:	ff 25 aa 5f 00 00    	jmp    *0x5faa(%rip)        # 407050 <strlen@GLIBC_2.2.5>
  4010a6:	68 07 00 00 00       	push   $0x7
  4010ab:	e9 70 ff ff ff       	jmp    401020 <.plt>

00000000004010b0 <mmap@plt>:
  4010b0:	ff 25 a2 5f 00 00    	jmp    *0x5fa2(%rip)        # 407058 <mmap@GLIBC_2.2.5>
  4010b6:	68 08 00 00 00       	push   $0x8
  4010bb:	e9 60 ff ff ff       	jmp    401020 <.plt>

00000000004010c0 <printf@plt>:
  4010c0:	ff 25 9a 5f 00 00    	jmp    *0x5f9a(%rip)        # 407060 <printf@GLIBC_2.2.5>
  4010c6:	68 09 00 00 00       	push   $0x9
  4010cb:	e9 50 ff ff ff       	jmp    401020 <.plt>

00000000004010d0 <memset@plt>:
  4010d0:	ff 25 92 5f 00 00    	jmp    *0x5f92(%rip)        # 407068 <memset@GLIBC_2.2.5>
  4010d6:	68 0a 00 00 00       	push   $0xa
  4010db:	e9 40 ff ff ff       	jmp    401020 <.plt>

00000000004010e0 <alarm@plt>:
  4010e0:	ff 25 8a 5f 00 00    	jmp    *0x5f8a(%rip)        # 407070 <alarm@GLIBC_2.2.5>
  4010e6:	68 0b 00 00 00       	push   $0xb
  4010eb:	e9 30 ff ff ff       	jmp    401020 <.plt>

00000000004010f0 <close@plt>:
  4010f0:	ff 25 82 5f 00 00    	jmp    *0x5f82(%rip)        # 407078 <close@GLIBC_2.2.5>
  4010f6:	68 0c 00 00 00       	push   $0xc
  4010fb:	e9 20 ff ff ff       	jmp    401020 <.plt>

0000000000401100 <read@plt>:
  401100:	ff 25 7a 5f 00 00    	jmp    *0x5f7a(%rip)        # 407080 <read@GLIBC_2.2.5>
  401106:	68 0d 00 00 00       	push   $0xd
  40110b:	e9 10 ff ff ff       	jmp    401020 <.plt>

0000000000401110 <signal@plt>:
  401110:	ff 25 72 5f 00 00    	jmp    *0x5f72(%rip)        # 407088 <signal@GLIBC_2.2.5>
  401116:	68 0e 00 00 00       	push   $0xe
  40111b:	e9 00 ff ff ff       	jmp    401020 <.plt>

0000000000401120 <gethostbyname@plt>:
  401120:	ff 25 6a 5f 00 00    	jmp    *0x5f6a(%rip)        # 407090 <gethostbyname@GLIBC_2.2.5>
  401126:	68 0f 00 00 00       	push   $0xf
  40112b:	e9 f0 fe ff ff       	jmp    401020 <.plt>

0000000000401130 <fprintf@plt>:
  401130:	ff 25 62 5f 00 00    	jmp    *0x5f62(%rip)        # 407098 <fprintf@GLIBC_2.2.5>
  401136:	68 10 00 00 00       	push   $0x10
  40113b:	e9 e0 fe ff ff       	jmp    401020 <.plt>

0000000000401140 <strtol@plt>:
  401140:	ff 25 5a 5f 00 00    	jmp    *0x5f5a(%rip)        # 4070a0 <strtol@GLIBC_2.2.5>
  401146:	68 11 00 00 00       	push   $0x11
  40114b:	e9 d0 fe ff ff       	jmp    401020 <.plt>

0000000000401150 <memcpy@plt>:
  401150:	ff 25 52 5f 00 00    	jmp    *0x5f52(%rip)        # 4070a8 <memcpy@GLIBC_2.14>
  401156:	68 12 00 00 00       	push   $0x12
  40115b:	e9 c0 fe ff ff       	jmp    401020 <.plt>

0000000000401160 <time@plt>:
  401160:	ff 25 4a 5f 00 00    	jmp    *0x5f4a(%rip)        # 4070b0 <time@GLIBC_2.2.5>
  401166:	68 13 00 00 00       	push   $0x13
  40116b:	e9 b0 fe ff ff       	jmp    401020 <.plt>

0000000000401170 <random@plt>:
  401170:	ff 25 42 5f 00 00    	jmp    *0x5f42(%rip)        # 4070b8 <random@GLIBC_2.2.5>
  401176:	68 14 00 00 00       	push   $0x14
  40117b:	e9 a0 fe ff ff       	jmp    401020 <.plt>

0000000000401180 <__isoc99_sscanf@plt>:
  401180:	ff 25 3a 5f 00 00    	jmp    *0x5f3a(%rip)        # 4070c0 <__isoc99_sscanf@GLIBC_2.7>
  401186:	68 15 00 00 00       	push   $0x15
  40118b:	e9 90 fe ff ff       	jmp    401020 <.plt>

0000000000401190 <munmap@plt>:
  401190:	ff 25 32 5f 00 00    	jmp    *0x5f32(%rip)        # 4070c8 <munmap@GLIBC_2.2.5>
  401196:	68 16 00 00 00       	push   $0x16
  40119b:	e9 80 fe ff ff       	jmp    401020 <.plt>

00000000004011a0 <memmove@plt>:
  4011a0:	ff 25 2a 5f 00 00    	jmp    *0x5f2a(%rip)        # 4070d0 <memmove@GLIBC_2.2.5>
  4011a6:	68 17 00 00 00       	push   $0x17
  4011ab:	e9 70 fe ff ff       	jmp    401020 <.plt>

00000000004011b0 <fopen@plt>:
  4011b0:	ff 25 22 5f 00 00    	jmp    *0x5f22(%rip)        # 4070d8 <fopen@GLIBC_2.2.5>
  4011b6:	68 18 00 00 00       	push   $0x18
  4011bb:	e9 60 fe ff ff       	jmp    401020 <.plt>

00000000004011c0 <getopt@plt>:
  4011c0:	ff 25 1a 5f 00 00    	jmp    *0x5f1a(%rip)        # 4070e0 <getopt@GLIBC_2.2.5>
  4011c6:	68 19 00 00 00       	push   $0x19
  4011cb:	e9 50 fe ff ff       	jmp    401020 <.plt>

00000000004011d0 <strtoul@plt>:
  4011d0:	ff 25 12 5f 00 00    	jmp    *0x5f12(%rip)        # 4070e8 <strtoul@GLIBC_2.2.5>
  4011d6:	68 1a 00 00 00       	push   $0x1a
  4011db:	e9 40 fe ff ff       	jmp    401020 <.plt>

00000000004011e0 <gethostname@plt>:
  4011e0:	ff 25 0a 5f 00 00    	jmp    *0x5f0a(%rip)        # 4070f0 <gethostname@GLIBC_2.2.5>
  4011e6:	68 1b 00 00 00       	push   $0x1b
  4011eb:	e9 30 fe ff ff       	jmp    401020 <.plt>

00000000004011f0 <sprintf@plt>:
  4011f0:	ff 25 02 5f 00 00    	jmp    *0x5f02(%rip)        # 4070f8 <sprintf@GLIBC_2.2.5>
  4011f6:	68 1c 00 00 00       	push   $0x1c
  4011fb:	e9 20 fe ff ff       	jmp    401020 <.plt>

0000000000401200 <exit@plt>:
  401200:	ff 25 fa 5e 00 00    	jmp    *0x5efa(%rip)        # 407100 <exit@GLIBC_2.2.5>
  401206:	68 1d 00 00 00       	push   $0x1d
  40120b:	e9 10 fe ff ff       	jmp    401020 <.plt>

0000000000401210 <connect@plt>:
  401210:	ff 25 f2 5e 00 00    	jmp    *0x5ef2(%rip)        # 407108 <connect@GLIBC_2.2.5>
  401216:	68 1e 00 00 00       	push   $0x1e
  40121b:	e9 00 fe ff ff       	jmp    401020 <.plt>

0000000000401220 <getc@plt>:
  401220:	ff 25 ea 5e 00 00    	jmp    *0x5eea(%rip)        # 407110 <getc@GLIBC_2.2.5>
  401226:	68 1f 00 00 00       	push   $0x1f
  40122b:	e9 f0 fd ff ff       	jmp    401020 <.plt>

0000000000401230 <socket@plt>:
  401230:	ff 25 e2 5e 00 00    	jmp    *0x5ee2(%rip)        # 407118 <socket@GLIBC_2.2.5>
  401236:	68 20 00 00 00       	push   $0x20
  40123b:	e9 e0 fd ff ff       	jmp    401020 <.plt>

Disassembly of section .text:

0000000000401240 <_start>:
  401240:	31 ed                	xor    %ebp,%ebp
  401242:	49 89 d1             	mov    %rdx,%r9
  401245:	5e                   	pop    %rsi
  401246:	48 89 e2             	mov    %rsp,%rdx
  401249:	48 83 e4 f0          	and    $0xfffffffffffffff0,%rsp
  40124d:	50                   	push   %rax
  40124e:	54                   	push   %rsp
  40124f:	49 c7 c0 c0 31 40 00 	mov    $0x4031c0,%r8
  401256:	48 c7 c1 60 31 40 00 	mov    $0x403160,%rcx
  40125d:	48 c7 c7 df 14 40 00 	mov    $0x4014df,%rdi
  401264:	ff 15 86 5d 00 00    	call   *0x5d86(%rip)        # 406ff0 <__libc_start_main@GLIBC_2.2.5>
  40126a:	f4                   	hlt
  40126b:	0f 1f 44 00 00       	nopl   0x0(%rax,%rax,1)

0000000000401270 <_dl_relocate_static_pie>:
  401270:	c3                   	ret
  401271:	66 2e 0f 1f 84 00 00 	cs nopw 0x0(%rax,%rax,1)
  401278:	00 00 00 
  40127b:	0f 1f 44 00 00       	nopl   0x0(%rax,%rax,1)

0000000000401280 <deregister_tm_clones>:
  401280:	b8 98 74 40 00       	mov    $0x407498,%eax
  401285:	48 3d 98 74 40 00    	cmp    $0x407498,%rax
  40128b:	74 13                	je     4012a0 <deregister_tm_clones+0x20>
  40128d:	b8 00 00 00 00       	mov    $0x0,%eax
  401292:	48 85 c0             	test   %rax,%rax
  401295:	74 09                	je     4012a0 <deregister_tm_clones+0x20>
  401297:	bf 98 74 40 00       	mov    $0x407498,%edi
  40129c:	ff e0                	jmp    *%rax
  40129e:	66 90                	xchg   %ax,%ax
  4012a0:	c3                   	ret
  4012a1:	66 66 2e 0f 1f 84 00 	data16 cs nopw 0x0(%rax,%rax,1)
  4012a8:	00 00 00 00 
  4012ac:	0f 1f 40 00          	nopl   0x0(%rax)

00000000004012b0 <register_tm_clones>:
  4012b0:	be 98 74 40 00       	mov    $0x407498,%esi
  4012b5:	48 81 ee 98 74 40 00 	sub    $0x407498,%rsi
  4012bc:	48 89 f0             	mov    %rsi,%rax
  4012bf:	48 c1 ee 3f          	shr    $0x3f,%rsi
  4012c3:	48 c1 f8 03          	sar    $0x3,%rax
  4012c7:	48 01 c6             	add    %rax,%rsi
  4012ca:	48 d1 fe             	sar    %rsi
  4012cd:	74 11                	je     4012e0 <register_tm_clones+0x30>
  4012cf:	b8 00 00 00 00       	mov    $0x0,%eax
  4012d4:	48 85 c0             	test   %rax,%rax
  4012d7:	74 07                	je     4012e0 <register_tm_clones+0x30>
  4012d9:	bf 98 74 40 00       	mov    $0x407498,%edi
  4012de:	ff e0                	jmp    *%rax
  4012e0:	c3                   	ret
  4012e1:	66 66 2e 0f 1f 84 00 	data16 cs nopw 0x0(%rax,%rax,1)
  4012e8:	00 00 00 00 
  4012ec:	0f 1f 40 00          	nopl   0x0(%rax)

00000000004012f0 <__do_global_dtors_aux>:
  4012f0:	80 3d f1 61 00 00 00 	cmpb   $0x0,0x61f1(%rip)        # 4074e8 <completed.0>
  4012f7:	75 17                	jne    401310 <__do_global_dtors_aux+0x20>
  4012f9:	55                   	push   %rbp
  4012fa:	48 89 e5             	mov    %rsp,%rbp
  4012fd:	e8 7e ff ff ff       	call   401280 <deregister_tm_clones>
  401302:	c6 05 df 61 00 00 01 	movb   $0x1,0x61df(%rip)        # 4074e8 <completed.0>
  401309:	5d                   	pop    %rbp
  40130a:	c3                   	ret
  40130b:	0f 1f 44 00 00       	nopl   0x0(%rax,%rax,1)
  401310:	c3                   	ret
  401311:	66 66 2e 0f 1f 84 00 	data16 cs nopw 0x0(%rax,%rax,1)
  401318:	00 00 00 00 
  40131c:	0f 1f 40 00          	nopl   0x0(%rax)

0000000000401320 <frame_dummy>:
  401320:	eb 8e                	jmp    4012b0 <register_tm_clones>

0000000000401322 <usage>:
  401322:	48 83 ec 08          	sub    $0x8,%rsp
  401326:	48 89 fe             	mov    %rdi,%rsi
  401329:	83 3d 00 62 00 00 00 	cmpl   $0x0,0x6200(%rip)        # 407530 <is_checker>
  401330:	74 4b                	je     40137d <usage+0x5b>
  401332:	48 8d 3d cf 2c 00 00 	lea    0x2ccf(%rip),%rdi        # 404008 <_IO_stdin_used+0x8>
  401339:	b8 00 00 00 00       	mov    $0x0,%eax
  40133e:	e8 7d fd ff ff       	call   4010c0 <printf@plt>
  401343:	48 8d 3d f6 2c 00 00 	lea    0x2cf6(%rip),%rdi        # 404040 <_IO_stdin_used+0x40>
  40134a:	e8 31 fd ff ff       	call   401080 <puts@plt>
  40134f:	48 8d 3d 22 2e 00 00 	lea    0x2e22(%rip),%rdi        # 404178 <_IO_stdin_used+0x178>
  401356:	e8 25 fd ff ff       	call   401080 <puts@plt>
  40135b:	48 8d 3d 06 2d 00 00 	lea    0x2d06(%rip),%rdi        # 404068 <_IO_stdin_used+0x68>
  401362:	e8 19 fd ff ff       	call   401080 <puts@plt>
  401367:	48 8d 3d 24 2e 00 00 	lea    0x2e24(%rip),%rdi        # 404192 <_IO_stdin_used+0x192>
  40136e:	e8 0d fd ff ff       	call   401080 <puts@plt>
  401373:	bf 00 00 00 00       	mov    $0x0,%edi
  401378:	e8 83 fe ff ff       	call   401200 <exit@plt>
  40137d:	48 8d 3d 2a 2e 00 00 	lea    0x2e2a(%rip),%rdi        # 4041ae <_IO_stdin_used+0x1ae>
  401384:	b8 00 00 00 00       	mov    $0x0,%eax
  401389:	e8 32 fd ff ff       	call   4010c0 <printf@plt>
  40138e:	48 8d 3d fb 2c 00 00 	lea    0x2cfb(%rip),%rdi        # 404090 <_IO_stdin_used+0x90>
  401395:	e8 e6 fc ff ff       	call   401080 <puts@plt>
  40139a:	48 8d 3d 17 2d 00 00 	lea    0x2d17(%rip),%rdi        # 4040b8 <_IO_stdin_used+0xb8>
  4013a1:	e8 da fc ff ff       	call   401080 <puts@plt>
  4013a6:	48 8d 3d 1f 2e 00 00 	lea    0x2e1f(%rip),%rdi        # 4041cc <_IO_stdin_used+0x1cc>
  4013ad:	e8 ce fc ff ff       	call   401080 <puts@plt>
  4013b2:	eb bf                	jmp    401373 <usage+0x51>

00000000004013b4 <initialize_target>:
  4013b4:	55                   	push   %rbp
  4013b5:	53                   	push   %rbx
  4013b6:	48 81 ec 08 21 00 00 	sub    $0x2108,%rsp
  4013bd:	89 f5                	mov    %esi,%ebp
  4013bf:	89 3d 5b 61 00 00    	mov    %edi,0x615b(%rip)        # 407520 <check_level>
  4013c5:	8b 3d 65 5d 00 00    	mov    0x5d65(%rip),%edi        # 407130 <target_id>
  4013cb:	e8 68 1d 00 00       	call   403138 <gencookie>
  4013d0:	89 c7                	mov    %eax,%edi
  4013d2:	89 05 54 61 00 00    	mov    %eax,0x6154(%rip)        # 40752c <cookie>
  4013d8:	e8 5b 1d 00 00       	call   403138 <gencookie>
  4013dd:	89 05 45 61 00 00    	mov    %eax,0x6145(%rip)        # 407528 <authkey>
  4013e3:	8b 05 47 5d 00 00    	mov    0x5d47(%rip),%eax        # 407130 <target_id>
  4013e9:	8d 78 01             	lea    0x1(%rax),%edi
  4013ec:	e8 5f fc ff ff       	call   401050 <srandom@plt>
  4013f1:	e8 7a fd ff ff       	call   401170 <random@plt>
  4013f6:	48 89 c7             	mov    %rax,%rdi
  4013f9:	e8 b6 02 00 00       	call   4016b4 <scramble>
  4013fe:	89 c3                	mov    %eax,%ebx
  401400:	85 ed                	test   %ebp,%ebp
  401402:	75 3d                	jne    401441 <initialize_target+0x8d>
  401404:	b8 00 00 00 00       	mov    $0x0,%eax
  401409:	01 d8                	add    %ebx,%eax
  40140b:	0f b7 c0             	movzwl %ax,%eax
  40140e:	8d 04 c5 00 01 00 00 	lea    0x100(,%rax,8),%eax
  401415:	89 c0                	mov    %eax,%eax
  401417:	48 89 05 72 60 00 00 	mov    %rax,0x6072(%rip)        # 407490 <buf_offset>
  40141e:	c6 05 c4 60 00 00 72 	movb   $0x72,0x60c4(%rip)        # 4074e9 <target_prefix>
  401425:	83 3d 5c 60 00 00 00 	cmpl   $0x0,0x605c(%rip)        # 407488 <notify>
  40142c:	74 09                	je     401437 <initialize_target+0x83>
  40142e:	83 3d fb 60 00 00 00 	cmpl   $0x0,0x60fb(%rip)        # 407530 <is_checker>
  401435:	74 23                	je     40145a <initialize_target+0xa6>
  401437:	48 81 c4 08 21 00 00 	add    $0x2108,%rsp
  40143e:	5b                   	pop    %rbx
  40143f:	5d                   	pop    %rbp
  401440:	c3                   	ret
  401441:	bf 00 00 00 00       	mov    $0x0,%edi
  401446:	e8 15 fd ff ff       	call   401160 <time@plt>
  40144b:	48 89 c7             	mov    %rax,%rdi
  40144e:	e8 fd fb ff ff       	call   401050 <srandom@plt>
  401453:	e8 18 fd ff ff       	call   401170 <random@plt>
  401458:	eb af                	jmp    401409 <initialize_target+0x55>
  40145a:	48 89 e7             	mov    %rsp,%rdi
  40145d:	be 00 01 00 00       	mov    $0x100,%esi
  401462:	e8 79 fd ff ff       	call   4011e0 <gethostname@plt>
  401467:	89 c3                	mov    %eax,%ebx
  401469:	85 c0                	test   %eax,%eax
  40146b:	75 24                	jne    401491 <initialize_target+0xdd>
  40146d:	48 63 c3             	movslq %ebx,%rax
  401470:	48 8d 15 e9 5c 00 00 	lea    0x5ce9(%rip),%rdx        # 407160 <host_table>
  401477:	48 8b 3c c2          	mov    (%rdx,%rax,8),%rdi
  40147b:	48 85 ff             	test   %rdi,%rdi
  40147e:	74 27                	je     4014a7 <initialize_target+0xf3>
  401480:	48 89 e6             	mov    %rsp,%rsi
  401483:	e8 a8 fb ff ff       	call   401030 <strcasecmp@plt>
  401488:	85 c0                	test   %eax,%eax
  40148a:	74 1b                	je     4014a7 <initialize_target+0xf3>
  40148c:	83 c3 01             	add    $0x1,%ebx
  40148f:	eb dc                	jmp    40146d <initialize_target+0xb9>
  401491:	48 8d 3d 50 2c 00 00 	lea    0x2c50(%rip),%rdi        # 4040e8 <_IO_stdin_used+0xe8>
  401498:	e8 e3 fb ff ff       	call   401080 <puts@plt>
  40149d:	bf 08 00 00 00       	mov    $0x8,%edi
  4014a2:	e8 59 fd ff ff       	call   401200 <exit@plt>
  4014a7:	48 8d bc 24 00 01 00 	lea    0x100(%rsp),%rdi
  4014ae:	00 
  4014af:	e8 ed 19 00 00       	call   402ea1 <init_driver>
  4014b4:	85 c0                	test   %eax,%eax
  4014b6:	0f 89 7b ff ff ff    	jns    401437 <initialize_target+0x83>
  4014bc:	48 8d b4 24 00 01 00 	lea    0x100(%rsp),%rsi
  4014c3:	00 
  4014c4:	48 8d 3d 55 2c 00 00 	lea    0x2c55(%rip),%rdi        # 404120 <_IO_stdin_used+0x120>
  4014cb:	b8 00 00 00 00       	mov    $0x0,%eax
  4014d0:	e8 eb fb ff ff       	call   4010c0 <printf@plt>
  4014d5:	bf 08 00 00 00       	mov    $0x8,%edi
  4014da:	e8 21 fd ff ff       	call   401200 <exit@plt>

00000000004014df <main>:
  4014df:	41 56                	push   %r14
  4014e1:	41 55                	push   %r13
  4014e3:	41 54                	push   %r12
  4014e5:	55                   	push   %rbp
  4014e6:	53                   	push   %rbx
  4014e7:	89 fd                	mov    %edi,%ebp
  4014e9:	48 89 f3             	mov    %rsi,%rbx
  4014ec:	48 c7 c6 b3 22 40 00 	mov    $0x4022b3,%rsi
  4014f3:	bf 0b 00 00 00       	mov    $0xb,%edi
  4014f8:	e8 13 fc ff ff       	call   401110 <signal@plt>
  4014fd:	48 c7 c6 5f 22 40 00 	mov    $0x40225f,%rsi
  401504:	bf 07 00 00 00       	mov    $0x7,%edi
  401509:	e8 02 fc ff ff       	call   401110 <signal@plt>
  40150e:	48 c7 c6 07 23 40 00 	mov    $0x402307,%rsi
  401515:	bf 04 00 00 00       	mov    $0x4,%edi
  40151a:	e8 f1 fb ff ff       	call   401110 <signal@plt>
  40151f:	83 3d 0a 60 00 00 00 	cmpl   $0x0,0x600a(%rip)        # 407530 <is_checker>
  401526:	75 26                	jne    40154e <main+0x6f>
  401528:	4c 8d 25 be 2c 00 00 	lea    0x2cbe(%rip),%r12        # 4041ed <_IO_stdin_used+0x1ed>
  40152f:	48 8b 05 6a 5f 00 00 	mov    0x5f6a(%rip),%rax        # 4074a0 <stdin@GLIBC_2.2.5>
  401536:	48 89 05 db 5f 00 00 	mov    %rax,0x5fdb(%rip)        # 407518 <infile>
  40153d:	41 bd 00 00 00 00    	mov    $0x0,%r13d
  401543:	41 be 00 00 00 00    	mov    $0x0,%r14d
  401549:	e9 88 00 00 00       	jmp    4015d6 <main+0xf7>
  40154e:	48 c7 c6 5b 23 40 00 	mov    $0x40235b,%rsi
  401555:	bf 0e 00 00 00       	mov    $0xe,%edi
  40155a:	e8 b1 fb ff ff       	call   401110 <signal@plt>
  40155f:	bf 05 00 00 00       	mov    $0x5,%edi
  401564:	e8 77 fb ff ff       	call   4010e0 <alarm@plt>
  401569:	4c 8d 25 75 2c 00 00 	lea    0x2c75(%rip),%r12        # 4041e5 <_IO_stdin_used+0x1e5>
  401570:	eb bd                	jmp    40152f <main+0x50>
  401572:	48 8b 3b             	mov    (%rbx),%rdi
  401575:	e8 a8 fd ff ff       	call   401322 <usage>
  40157a:	48 8d 35 f4 2e 00 00 	lea    0x2ef4(%rip),%rsi        # 404475 <_IO_stdin_used+0x475>
  401581:	48 8b 3d 38 5f 00 00 	mov    0x5f38(%rip),%rdi        # 4074c0 <optarg@GLIBC_2.2.5>
  401588:	e8 23 fc ff ff       	call   4011b0 <fopen@plt>
  40158d:	48 89 05 84 5f 00 00 	mov    %rax,0x5f84(%rip)        # 407518 <infile>
  401594:	48 85 c0             	test   %rax,%rax
  401597:	75 3d                	jne    4015d6 <main+0xf7>
  401599:	48 8b 15 20 5f 00 00 	mov    0x5f20(%rip),%rdx        # 4074c0 <optarg@GLIBC_2.2.5>
  4015a0:	48 8d 35 4b 2c 00 00 	lea    0x2c4b(%rip),%rsi        # 4041f2 <_IO_stdin_used+0x1f2>
  4015a7:	48 8b 3d 32 5f 00 00 	mov    0x5f32(%rip),%rdi        # 4074e0 <stderr@GLIBC_2.2.5>
  4015ae:	e8 7d fb ff ff       	call   401130 <fprintf@plt>
  4015b3:	b8 01 00 00 00       	mov    $0x1,%eax
  4015b8:	e9 ce 00 00 00       	jmp    40168b <main+0x1ac>
  4015bd:	ba 10 00 00 00       	mov    $0x10,%edx
  4015c2:	be 00 00 00 00       	mov    $0x0,%esi
  4015c7:	48 8b 3d f2 5e 00 00 	mov    0x5ef2(%rip),%rdi        # 4074c0 <optarg@GLIBC_2.2.5>
  4015ce:	e8 fd fb ff ff       	call   4011d0 <strtoul@plt>
  4015d3:	41 89 c6             	mov    %eax,%r14d
  4015d6:	4c 89 e2             	mov    %r12,%rdx
  4015d9:	48 89 de             	mov    %rbx,%rsi
  4015dc:	89 ef                	mov    %ebp,%edi
  4015de:	e8 dd fb ff ff       	call   4011c0 <getopt@plt>
  4015e3:	3c ff                	cmp    $0xff,%al
  4015e5:	74 5d                	je     401644 <main+0x165>
  4015e7:	0f be f0             	movsbl %al,%esi
  4015ea:	83 e8 61             	sub    $0x61,%eax
  4015ed:	3c 10                	cmp    $0x10,%al
  4015ef:	77 3a                	ja     40162b <main+0x14c>
  4015f1:	0f b6 c0             	movzbl %al,%eax
  4015f4:	48 8d 15 35 2c 00 00 	lea    0x2c35(%rip),%rdx        # 404230 <_IO_stdin_used+0x230>
  4015fb:	48 63 04 82          	movslq (%rdx,%rax,4),%rax
  4015ff:	48 01 d0             	add    %rdx,%rax
  401602:	ff e0                	jmp    *%rax
  401604:	ba 0a 00 00 00       	mov    $0xa,%edx
  401609:	be 00 00 00 00       	mov    $0x0,%esi
  40160e:	48 8b 3d ab 5e 00 00 	mov    0x5eab(%rip),%rdi        # 4074c0 <optarg@GLIBC_2.2.5>
  401615:	e8 26 fb ff ff       	call   401140 <strtol@plt>
  40161a:	41 89 c5             	mov    %eax,%r13d
  40161d:	eb b7                	jmp    4015d6 <main+0xf7>
  40161f:	c7 05 5f 5e 00 00 00 	movl   $0x0,0x5e5f(%rip)        # 407488 <notify>
  401626:	00 00 00 
  401629:	eb ab                	jmp    4015d6 <main+0xf7>
  40162b:	48 8d 3d dd 2b 00 00 	lea    0x2bdd(%rip),%rdi        # 40420f <_IO_stdin_used+0x20f>
  401632:	b8 00 00 00 00       	mov    $0x0,%eax
  401637:	e8 84 fa ff ff       	call   4010c0 <printf@plt>
  40163c:	48 8b 3b             	mov    (%rbx),%rdi
  40163f:	e8 de fc ff ff       	call   401322 <usage>
  401644:	be 01 00 00 00       	mov    $0x1,%esi
  401649:	44 89 ef             	mov    %r13d,%edi
  40164c:	e8 63 fd ff ff       	call   4013b4 <initialize_target>
  401651:	83 3d d8 5e 00 00 00 	cmpl   $0x0,0x5ed8(%rip)        # 407530 <is_checker>
  401658:	74 09                	je     401663 <main+0x184>
  40165a:	44 39 35 c7 5e 00 00 	cmp    %r14d,0x5ec7(%rip)        # 407528 <authkey>
  401661:	75 31                	jne    401694 <main+0x1b5>
  401663:	8b 35 c3 5e 00 00    	mov    0x5ec3(%rip),%esi        # 40752c <cookie>
  401669:	48 8d 3d b2 2b 00 00 	lea    0x2bb2(%rip),%rdi        # 404222 <_IO_stdin_used+0x222>
  401670:	b8 00 00 00 00       	mov    $0x0,%eax
  401675:	e8 46 fa ff ff       	call   4010c0 <printf@plt>
  40167a:	48 8b 3d 0f 5e 00 00 	mov    0x5e0f(%rip),%rdi        # 407490 <buf_offset>
  401681:	e8 27 0d 00 00       	call   4023ad <launch>
  401686:	b8 00 00 00 00       	mov    $0x0,%eax
  40168b:	5b                   	pop    %rbx
  40168c:	5d                   	pop    %rbp
  40168d:	41 5c                	pop    %r12
  40168f:	41 5d                	pop    %r13
  401691:	41 5e                	pop    %r14
  401693:	c3                   	ret
  401694:	44 89 f6             	mov    %r14d,%esi
  401697:	48 8d 3d aa 2a 00 00 	lea    0x2aaa(%rip),%rdi        # 404148 <_IO_stdin_used+0x148>
  40169e:	b8 00 00 00 00       	mov    $0x0,%eax
  4016a3:	e8 18 fa ff ff       	call   4010c0 <printf@plt>
  4016a8:	b8 00 00 00 00       	mov    $0x0,%eax
  4016ad:	e8 81 08 00 00       	call   401f33 <check_fail>
  4016b2:	eb af                	jmp    401663 <main+0x184>

00000000004016b4 <scramble>:
  4016b4:	b8 00 00 00 00       	mov    $0x0,%eax
  4016b9:	eb 11                	jmp    4016cc <scramble+0x18>
  4016bb:	69 d0 d4 2f 00 00    	imul   $0x2fd4,%eax,%edx
  4016c1:	01 fa                	add    %edi,%edx
  4016c3:	89 c1                	mov    %eax,%ecx
  4016c5:	89 54 8c d0          	mov    %edx,-0x30(%rsp,%rcx,4)
  4016c9:	83 c0 01             	add    $0x1,%eax
  4016cc:	83 f8 09             	cmp    $0x9,%eax
  4016cf:	76 ea                	jbe    4016bb <scramble+0x7>
  4016d1:	8b 44 24 d0          	mov    -0x30(%rsp),%eax
  4016d5:	69 c0 f6 13 00 00    	imul   $0x13f6,%eax,%eax
  4016db:	89 44 24 d0          	mov    %eax,-0x30(%rsp)
  4016df:	8b 44 24 d0          	mov    -0x30(%rsp),%eax
  4016e3:	69 c0 b5 d3 00 00    	imul   $0xd3b5,%eax,%eax
  4016e9:	89 44 24 d0          	mov    %eax,-0x30(%rsp)
  4016ed:	8b 44 24 d8          	mov    -0x28(%rsp),%eax
  4016f1:	69 c0 b5 e2 00 00    	imul   $0xe2b5,%eax,%eax
  4016f7:	89 44 24 d8          	mov    %eax,-0x28(%rsp)
  4016fb:	8b 44 24 d0          	mov    -0x30(%rsp),%eax
  4016ff:	69 c0 d1 ba 00 00    	imul   $0xbad1,%eax,%eax
  401705:	89 44 24 d0          	mov    %eax,-0x30(%rsp)
  401709:	8b 44 24 e8          	mov    -0x18(%rsp),%eax
  40170d:	69 c0 3f 54 00 00    	imul   $0x543f,%eax,%eax
  401713:	89 44 24 e8          	mov    %eax,-0x18(%rsp)
  401717:	8b 44 24 e8          	mov    -0x18(%rsp),%eax
  40171b:	69 c0 2e 53 00 00    	imul   $0x532e,%eax,%eax
  401721:	89 44 24 e8          	mov    %eax,-0x18(%rsp)
  401725:	8b 44 24 dc          	mov    -0x24(%rsp),%eax
  401729:	69 c0 bd 28 00 00    	imul   $0x28bd,%eax,%eax
  40172f:	89 44 24 dc          	mov    %eax,-0x24(%rsp)
  401733:	8b 44 24 d4          	mov    -0x2c(%rsp),%eax
  401737:	69 c0 20 96 00 00    	imul   $0x9620,%eax,%eax
  40173d:	89 44 24 d4          	mov    %eax,-0x2c(%rsp)
  401741:	8b 44 24 f0          	mov    -0x10(%rsp),%eax
  401745:	69 c0 67 90 00 00    	imul   $0x9067,%eax,%eax
  40174b:	89 44 24 f0          	mov    %eax,-0x10(%rsp)
  40174f:	8b 44 24 d4          	mov    -0x2c(%rsp),%eax
  401753:	69 c0 3c c1 00 00    	imul   $0xc13c,%eax,%eax
  401759:	89 44 24 d4          	mov    %eax,-0x2c(%rsp)
  40175d:	8b 44 24 ec          	mov    -0x14(%rsp),%eax
  401761:	69 c0 dc 0a 00 00    	imul   $0xadc,%eax,%eax
  401767:	89 44 24 ec          	mov    %eax,-0x14(%rsp)
  40176b:	8b 44 24 e4          	mov    -0x1c(%rsp),%eax
  40176f:	69 c0 97 65 00 00    	imul   $0x6597,%eax,%eax
  401775:	89 44 24 e4          	mov    %eax,-0x1c(%rsp)
  401779:	8b 44 24 d0          	mov    -0x30(%rsp),%eax
  40177d:	69 c0 41 3e 00 00    	imul   $0x3e41,%eax,%eax
  401783:	89 44 24 d0          	mov    %eax,-0x30(%rsp)
  401787:	8b 44 24 d4          	mov    -0x2c(%rsp),%eax
  40178b:	69 c0 01 f1 00 00    	imul   $0xf101,%eax,%eax
  401791:	89 44 24 d4          	mov    %eax,-0x2c(%rsp)
  401795:	8b 44 24 f0          	mov    -0x10(%rsp),%eax
  401799:	69 c0 e7 44 00 00    	imul   $0x44e7,%eax,%eax
  40179f:	89 44 24 f0          	mov    %eax,-0x10(%rsp)
  4017a3:	8b 44 24 ec          	mov    -0x14(%rsp),%eax
  4017a7:	69 c0 c7 1a 00 00    	imul   $0x1ac7,%eax,%eax
  4017ad:	89 44 24 ec          	mov    %eax,-0x14(%rsp)
  4017b1:	8b 44 24 e4          	mov    -0x1c(%rsp),%eax
  4017b5:	69 c0 88 dc 00 00    	imul   $0xdc88,%eax,%eax
  4017bb:	89 44 24 e4          	mov    %eax,-0x1c(%rsp)
  4017bf:	8b 44 24 e8          	mov    -0x18(%rsp),%eax
  4017c3:	69 c0 93 21 00 00    	imul   $0x2193,%eax,%eax
  4017c9:	89 44 24 e8          	mov    %eax,-0x18(%rsp)
  4017cd:	8b 44 24 d0          	mov    -0x30(%rsp),%eax
  4017d1:	69 c0 ab df 00 00    	imul   $0xdfab,%eax,%eax
  4017d7:	89 44 24 d0          	mov    %eax,-0x30(%rsp)
  4017db:	8b 44 24 e8          	mov    -0x18(%rsp),%eax
  4017df:	69 c0 2e 64 00 00    	imul   $0x642e,%eax,%eax
  4017e5:	89 44 24 e8          	mov    %eax,-0x18(%rsp)
  4017e9:	8b 44 24 d0          	mov    -0x30(%rsp),%eax
  4017ed:	69 c0 62 fc 00 00    	imul   $0xfc62,%eax,%eax
  4017f3:	89 44 24 d0          	mov    %eax,-0x30(%rsp)
  4017f7:	8b 44 24 d0          	mov    -0x30(%rsp),%eax
  4017fb:	69 c0 d0 19 00 00    	imul   $0x19d0,%eax,%eax
  401801:	89 44 24 d0          	mov    %eax,-0x30(%rsp)
  401805:	8b 44 24 d8          	mov    -0x28(%rsp),%eax
  401809:	69 c0 d6 ec 00 00    	imul   $0xecd6,%eax,%eax
  40180f:	89 44 24 d8          	mov    %eax,-0x28(%rsp)
  401813:	8b 44 24 ec          	mov    -0x14(%rsp),%eax
  401817:	69 c0 a3 3f 00 00    	imul   $0x3fa3,%eax,%eax
  40181d:	89 44 24 ec          	mov    %eax,-0x14(%rsp)
  401821:	8b 44 24 e4          	mov    -0x1c(%rsp),%eax
  401825:	69 c0 f4 e7 00 00    	imul   $0xe7f4,%eax,%eax
  40182b:	89 44 24 e4          	mov    %eax,-0x1c(%rsp)
  40182f:	8b 44 24 f4          	mov    -0xc(%rsp),%eax
  401833:	69 c0 9d 7c 00 00    	imul   $0x7c9d,%eax,%eax
  401839:	89 44 24 f4          	mov    %eax,-0xc(%rsp)
  40183d:	8b 44 24 f0          	mov    -0x10(%rsp),%eax
  401841:	69 c0 24 cc 00 00    	imul   $0xcc24,%eax,%eax
  401847:	89 44 24 f0          	mov    %eax,-0x10(%rsp)
  40184b:	8b 44 24 e8          	mov    -0x18(%rsp),%eax
  40184f:	69 c0 a8 97 00 00    	imul   $0x97a8,%eax,%eax
  401855:	89 44 24 e8          	mov    %eax,-0x18(%rsp)
  401859:	8b 44 24 dc          	mov    -0x24(%rsp),%eax
  40185d:	69 c0 50 c9 00 00    	imul   $0xc950,%eax,%eax
  401863:	89 44 24 dc          	mov    %eax,-0x24(%rsp)
  401867:	8b 44 24 ec          	mov    -0x14(%rsp),%eax
  40186b:	69 c0 59 f5 00 00    	imul   $0xf559,%eax,%eax
  401871:	89 44 24 ec          	mov    %eax,-0x14(%rsp)
  401875:	8b 44 24 e8          	mov    -0x18(%rsp),%eax
  401879:	69 c0 b6 ef 00 00    	imul   $0xefb6,%eax,%eax
  40187f:	89 44 24 e8          	mov    %eax,-0x18(%rsp)
  401883:	8b 44 24 e0          	mov    -0x20(%rsp),%eax
  401887:	69 c0 14 67 00 00    	imul   $0x6714,%eax,%eax
  40188d:	89 44 24 e0          	mov    %eax,-0x20(%rsp)
  401891:	8b 44 24 e4          	mov    -0x1c(%rsp),%eax
  401895:	69 c0 9d fe 00 00    	imul   $0xfe9d,%eax,%eax
  40189b:	89 44 24 e4          	mov    %eax,-0x1c(%rsp)
  40189f:	8b 44 24 d8          	mov    -0x28(%rsp),%eax
  4018a3:	69 c0 7c 8b 00 00    	imul   $0x8b7c,%eax,%eax
  4018a9:	89 44 24 d8          	mov    %eax,-0x28(%rsp)
  4018ad:	8b 44 24 d4          	mov    -0x2c(%rsp),%eax
  4018b1:	69 c0 0b 65 00 00    	imul   $0x650b,%eax,%eax
  4018b7:	89 44 24 d4          	mov    %eax,-0x2c(%rsp)
  4018bb:	8b 44 24 e8          	mov    -0x18(%rsp),%eax
  4018bf:	69 c0 32 12 00 00    	imul   $0x1232,%eax,%eax
  4018c5:	89 44 24 e8          	mov    %eax,-0x18(%rsp)
  4018c9:	8b 44 24 dc          	mov    -0x24(%rsp),%eax
  4018cd:	69 c0 07 a7 00 00    	imul   $0xa707,%eax,%eax
  4018d3:	89 44 24 dc          	mov    %eax,-0x24(%rsp)
  4018d7:	8b 44 24 d4          	mov    -0x2c(%rsp),%eax
  4018db:	69 c0 8e 86 00 00    	imul   $0x868e,%eax,%eax
  4018e1:	89 44 24 d4          	mov    %eax,-0x2c(%rsp)
  4018e5:	8b 44 24 d4          	mov    -0x2c(%rsp),%eax
  4018e9:	69 c0 f3 db 00 00    	imul   $0xdbf3,%eax,%eax
  4018ef:	89 44 24 d4          	mov    %eax,-0x2c(%rsp)
  4018f3:	8b 44 24 f0          	mov    -0x10(%rsp),%eax
  4018f7:	69 c0 1b 11 00 00    	imul   $0x111b,%eax,%eax
  4018fd:	89 44 24 f0          	mov    %eax,-0x10(%rsp)
  401901:	8b 44 24 d8          	mov    -0x28(%rsp),%eax
  401905:	69 c0 10 c7 00 00    	imul   $0xc710,%eax,%eax
  40190b:	89 44 24 d8          	mov    %eax,-0x28(%rsp)
  40190f:	8b 44 24 d4          	mov    -0x2c(%rsp),%eax
  401913:	69 c0 b9 b6 00 00    	imul   $0xb6b9,%eax,%eax
  401919:	89 44 24 d4          	mov    %eax,-0x2c(%rsp)
  40191d:	8b 44 24 dc          	mov    -0x24(%rsp),%eax
  401921:	69 c0 ec 6f 00 00    	imul   $0x6fec,%eax,%eax
  401927:	89 44 24 dc          	mov    %eax,-0x24(%rsp)
  40192b:	8b 44 24 f0          	mov    -0x10(%rsp),%eax
  40192f:	69 c0 9b 9d 00 00    	imul   $0x9d9b,%eax,%eax
  401935:	89 44 24 f0          	mov    %eax,-0x10(%rsp)
  401939:	8b 44 24 f0          	mov    -0x10(%rsp),%eax
  40193d:	69 c0 0b d7 00 00    	imul   $0xd70b,%eax,%eax
  401943:	89 44 24 f0          	mov    %eax,-0x10(%rsp)
  401947:	8b 44 24 dc          	mov    -0x24(%rsp),%eax
  40194b:	69 c0 74 47 00 00    	imul   $0x4774,%eax,%eax
  401951:	89 44 24 dc          	mov    %eax,-0x24(%rsp)
  401955:	8b 44 24 d8          	mov    -0x28(%rsp),%eax
  401959:	69 c0 14 a3 00 00    	imul   $0xa314,%eax,%eax
  40195f:	89 44 24 d8          	mov    %eax,-0x28(%rsp)
  401963:	8b 44 24 d0          	mov    -0x30(%rsp),%eax
  401967:	69 c0 ff 92 00 00    	imul   $0x92ff,%eax,%eax
  40196d:	89 44 24 d0          	mov    %eax,-0x30(%rsp)
  401971:	8b 44 24 d8          	mov    -0x28(%rsp),%eax
  401975:	69 c0 30 37 00 00    	imul   $0x3730,%eax,%eax
  40197b:	89 44 24 d8          	mov    %eax,-0x28(%rsp)
  40197f:	8b 44 24 ec          	mov    -0x14(%rsp),%eax
  401983:	69 c0 fa 7f 00 00    	imul   $0x7ffa,%eax,%eax
  401989:	89 44 24 ec          	mov    %eax,-0x14(%rsp)
  40198d:	8b 44 24 dc          	mov    -0x24(%rsp),%eax
  401991:	69 c0 27 0e 00 00    	imul   $0xe27,%eax,%eax
  401997:	89 44 24 dc          	mov    %eax,-0x24(%rsp)
  40199b:	8b 44 24 f0          	mov    -0x10(%rsp),%eax
  40199f:	69 c0 a9 fd 00 00    	imul   $0xfda9,%eax,%eax
  4019a5:	89 44 24 f0          	mov    %eax,-0x10(%rsp)
  4019a9:	8b 44 24 d4          	mov    -0x2c(%rsp),%eax
  4019ad:	69 c0 30 be 00 00    	imul   $0xbe30,%eax,%eax
  4019b3:	89 44 24 d4          	mov    %eax,-0x2c(%rsp)
  4019b7:	8b 44 24 e4          	mov    -0x1c(%rsp),%eax
  4019bb:	69 c0 0c 49 00 00    	imul   $0x490c,%eax,%eax
  4019c1:	89 44 24 e4          	mov    %eax,-0x1c(%rsp)
  4019c5:	8b 44 24 d4          	mov    -0x2c(%rsp),%eax
  4019c9:	69 c0 68 4a 00 00    	imul   $0x4a68,%eax,%eax
  4019cf:	89 44 24 d4          	mov    %eax,-0x2c(%rsp)
  4019d3:	8b 44 24 d4          	mov    -0x2c(%rsp),%eax
  4019d7:	69 c0 0b 5e 00 00    	imul   $0x5e0b,%eax,%eax
  4019dd:	89 44 24 d4          	mov    %eax,-0x2c(%rsp)
  4019e1:	8b 44 24 d8          	mov    -0x28(%rsp),%eax
  4019e5:	69 c0 df e7 00 00    	imul   $0xe7df,%eax,%eax
  4019eb:	89 44 24 d8          	mov    %eax,-0x28(%rsp)
  4019ef:	8b 44 24 dc          	mov    -0x24(%rsp),%eax
  4019f3:	69 c0 ae a4 00 00    	imul   $0xa4ae,%eax,%eax
  4019f9:	89 44 24 dc          	mov    %eax,-0x24(%rsp)
  4019fd:	8b 44 24 d4          	mov    -0x2c(%rsp),%eax
  401a01:	69 c0 26 63 00 00    	imul   $0x6326,%eax,%eax
  401a07:	89 44 24 d4          	mov    %eax,-0x2c(%rsp)
  401a0b:	8b 44 24 ec          	mov    -0x14(%rsp),%eax
  401a0f:	69 c0 07 91 00 00    	imul   $0x9107,%eax,%eax
  401a15:	89 44 24 ec          	mov    %eax,-0x14(%rsp)
  401a19:	8b 44 24 f4          	mov    -0xc(%rsp),%eax
  401a1d:	69 c0 3d d5 00 00    	imul   $0xd53d,%eax,%eax
  401a23:	89 44 24 f4          	mov    %eax,-0xc(%rsp)
  401a27:	8b 44 24 ec          	mov    -0x14(%rsp),%eax
  401a2b:	69 c0 f2 00 00 00    	imul   $0xf2,%eax,%eax
  401a31:	89 44 24 ec          	mov    %eax,-0x14(%rsp)
  401a35:	8b 44 24 f4          	mov    -0xc(%rsp),%eax
  401a39:	69 c0 04 87 00 00    	imul   $0x8704,%eax,%eax
  401a3f:	89 44 24 f4          	mov    %eax,-0xc(%rsp)
  401a43:	8b 44 24 e0          	mov    -0x20(%rsp),%eax
  401a47:	69 c0 03 1a 00 00    	imul   $0x1a03,%eax,%eax
  401a4d:	89 44 24 e0          	mov    %eax,-0x20(%rsp)
  401a51:	8b 44 24 d8          	mov    -0x28(%rsp),%eax
  401a55:	69 c0 6d b2 00 00    	imul   $0xb26d,%eax,%eax
  401a5b:	89 44 24 d8          	mov    %eax,-0x28(%rsp)
  401a5f:	8b 44 24 f0          	mov    -0x10(%rsp),%eax
  401a63:	69 c0 6f 5a 00 00    	imul   $0x5a6f,%eax,%eax
  401a69:	89 44 24 f0          	mov    %eax,-0x10(%rsp)
  401a6d:	8b 44 24 ec          	mov    -0x14(%rsp),%eax
  401a71:	69 c0 2b 2c 00 00    	imul   $0x2c2b,%eax,%eax
  401a77:	89 44 24 ec          	mov    %eax,-0x14(%rsp)
  401a7b:	8b 44 24 e4          	mov    -0x1c(%rsp),%eax
  401a7f:	69 c0 c3 75 00 00    	imul   $0x75c3,%eax,%eax
  401a85:	89 44 24 e4          	mov    %eax,-0x1c(%rsp)
  401a89:	8b 44 24 f4          	mov    -0xc(%rsp),%eax
  401a8d:	69 c0 50 dc 00 00    	imul   $0xdc50,%eax,%eax
  401a93:	89 44 24 f4          	mov    %eax,-0xc(%rsp)
  401a97:	8b 44 24 dc          	mov    -0x24(%rsp),%eax
  401a9b:	69 c0 7e 84 00 00    	imul   $0x847e,%eax,%eax
  401aa1:	89 44 24 dc          	mov    %eax,-0x24(%rsp)
  401aa5:	8b 44 24 e0          	mov    -0x20(%rsp),%eax
  401aa9:	69 c0 f6 18 00 00    	imul   $0x18f6,%eax,%eax
  401aaf:	89 44 24 e0          	mov    %eax,-0x20(%rsp)
  401ab3:	8b 44 24 ec          	mov    -0x14(%rsp),%eax
  401ab7:	69 c0 32 38 00 00    	imul   $0x3832,%eax,%eax
  401abd:	89 44 24 ec          	mov    %eax,-0x14(%rsp)
  401ac1:	8b 44 24 e8          	mov    -0x18(%rsp),%eax
  401ac5:	69 c0 4e f7 00 00    	imul   $0xf74e,%eax,%eax
  401acb:	89 44 24 e8          	mov    %eax,-0x18(%rsp)
  401acf:	8b 44 24 e8          	mov    -0x18(%rsp),%eax
  401ad3:	69 c0 a0 58 00 00    	imul   $0x58a0,%eax,%eax
  401ad9:	89 44 24 e8          	mov    %eax,-0x18(%rsp)
  401add:	8b 44 24 e4          	mov    -0x1c(%rsp),%eax
  401ae1:	69 c0 29 1f 00 00    	imul   $0x1f29,%eax,%eax
  401ae7:	89 44 24 e4          	mov    %eax,-0x1c(%rsp)
  401aeb:	8b 44 24 d0          	mov    -0x30(%rsp),%eax
  401aef:	69 c0 a5 94 00 00    	imul   $0x94a5,%eax,%eax
  401af5:	89 44 24 d0          	mov    %eax,-0x30(%rsp)
  401af9:	8b 44 24 dc          	mov    -0x24(%rsp),%eax
  401afd:	69 c0 23 c2 00 00    	imul   $0xc223,%eax,%eax
  401b03:	89 44 24 dc          	mov    %eax,-0x24(%rsp)
  401b07:	8b 44 24 d4          	mov    -0x2c(%rsp),%eax
  401b0b:	69 c0 b7 6c 00 00    	imul   $0x6cb7,%eax,%eax
  401b11:	89 44 24 d4          	mov    %eax,-0x2c(%rsp)
  401b15:	8b 44 24 e4          	mov    -0x1c(%rsp),%eax
  401b19:	69 c0 89 29 00 00    	imul   $0x2989,%eax,%eax
  401b1f:	89 44 24 e4          	mov    %eax,-0x1c(%rsp)
  401b23:	8b 44 24 f0          	mov    -0x10(%rsp),%eax
  401b27:	69 c0 5b 07 00 00    	imul   $0x75b,%eax,%eax
  401b2d:	89 44 24 f0          	mov    %eax,-0x10(%rsp)
  401b31:	8b 44 24 f0          	mov    -0x10(%rsp),%eax
  401b35:	69 c0 b9 20 00 00    	imul   $0x20b9,%eax,%eax
  401b3b:	89 44 24 f0          	mov    %eax,-0x10(%rsp)
  401b3f:	8b 44 24 e8          	mov    -0x18(%rsp),%eax
  401b43:	69 c0 8b 9c 00 00    	imul   $0x9c8b,%eax,%eax
  401b49:	89 44 24 e8          	mov    %eax,-0x18(%rsp)
  401b4d:	8b 44 24 e8          	mov    -0x18(%rsp),%eax
  401b51:	69 c0 e3 b9 00 00    	imul   $0xb9e3,%eax,%eax
  401b57:	89 44 24 e8          	mov    %eax,-0x18(%rsp)
  401b5b:	8b 44 24 e8          	mov    -0x18(%rsp),%eax
  401b5f:	69 c0 3f 37 00 00    	imul   $0x373f,%eax,%eax
  401b65:	89 44 24 e8          	mov    %eax,-0x18(%rsp)
  401b69:	8b 44 24 d4          	mov    -0x2c(%rsp),%eax
  401b6d:	69 c0 1d d1 00 00    	imul   $0xd11d,%eax,%eax
  401b73:	89 44 24 d4          	mov    %eax,-0x2c(%rsp)
  401b77:	8b 44 24 ec          	mov    -0x14(%rsp),%eax
  401b7b:	69 c0 ed bc 00 00    	imul   $0xbced,%eax,%eax
  401b81:	89 44 24 ec          	mov    %eax,-0x14(%rsp)
  401b85:	8b 44 24 e4          	mov    -0x1c(%rsp),%eax
  401b89:	69 c0 47 9e 00 00    	imul   $0x9e47,%eax,%eax
  401b8f:	89 44 24 e4          	mov    %eax,-0x1c(%rsp)
  401b93:	8b 44 24 e8          	mov    -0x18(%rsp),%eax
  401b97:	69 c0 e8 ea 00 00    	imul   $0xeae8,%eax,%eax
  401b9d:	89 44 24 e8          	mov    %eax,-0x18(%rsp)
  401ba1:	8b 44 24 e8          	mov    -0x18(%rsp),%eax
  401ba5:	69 c0 ff d1 00 00    	imul   $0xd1ff,%eax,%eax
  401bab:	89 44 24 e8          	mov    %eax,-0x18(%rsp)
  401baf:	8b 44 24 d8          	mov    -0x28(%rsp),%eax
  401bb3:	69 c0 0a f0 00 00    	imul   $0xf00a,%eax,%eax
  401bb9:	89 44 24 d8          	mov    %eax,-0x28(%rsp)
  401bbd:	8b 44 24 f0          	mov    -0x10(%rsp),%eax
  401bc1:	69 c0 2f 2d 00 00    	imul   $0x2d2f,%eax,%eax
  401bc7:	89 44 24 f0          	mov    %eax,-0x10(%rsp)
  401bcb:	8b 44 24 d0          	mov    -0x30(%rsp),%eax
  401bcf:	69 c0 8e e5 00 00    	imul   $0xe58e,%eax,%eax
  401bd5:	89 44 24 d0          	mov    %eax,-0x30(%rsp)
  401bd9:	b8 00 00 00 00       	mov    $0x0,%eax
  401bde:	ba 00 00 00 00       	mov    $0x0,%edx
  401be3:	eb 0b                	jmp    401bf0 <scramble+0x53c>
  401be5:	89 c1                	mov    %eax,%ecx
  401be7:	8b 4c 8c d0          	mov    -0x30(%rsp,%rcx,4),%ecx
  401beb:	01 ca                	add    %ecx,%edx
  401bed:	83 c0 01             	add    $0x1,%eax
  401bf0:	83 f8 09             	cmp    $0x9,%eax
  401bf3:	76 f0                	jbe    401be5 <scramble+0x531>
  401bf5:	89 d0                	mov    %edx,%eax
  401bf7:	c3                   	ret

0000000000401bf8 <getbuf>:
  401bf8:	48 83 ec 38          	sub    $0x38,%rsp
  401bfc:	48 89 e7             	mov    %rsp,%rdi
  401bff:	e8 62 03 00 00       	call   401f66 <Gets>
  401c04:	b8 01 00 00 00       	mov    $0x1,%eax
  401c09:	48 83 c4 38          	add    $0x38,%rsp
  401c0d:	c3                   	ret

0000000000401c0e <touch1>:
  401c0e:	48 83 ec 08          	sub    $0x8,%rsp
  401c12:	c7 05 08 59 00 00 01 	movl   $0x1,0x5908(%rip)        # 407524 <vlevel>
  401c19:	00 00 00 
  401c1c:	48 8d 3d a8 26 00 00 	lea    0x26a8(%rip),%rdi        # 4042cb <_IO_stdin_used+0x2cb>
  401c23:	e8 58 f4 ff ff       	call   401080 <puts@plt>
  401c28:	bf 01 00 00 00       	mov    $0x1,%edi
  401c2d:	e8 47 05 00 00       	call   402179 <validate>
  401c32:	bf 00 00 00 00       	mov    $0x0,%edi
  401c37:	e8 c4 f5 ff ff       	call   401200 <exit@plt>

0000000000401c3c <touch2>:
  401c3c:	48 83 ec 08          	sub    $0x8,%rsp
  401c40:	89 fe                	mov    %edi,%esi
  401c42:	c7 05 d8 58 00 00 02 	movl   $0x2,0x58d8(%rip)        # 407524 <vlevel>
  401c49:	00 00 00 
  401c4c:	39 3d da 58 00 00    	cmp    %edi,0x58da(%rip)        # 40752c <cookie>
  401c52:	74 25                	je     401c79 <touch2+0x3d>
  401c54:	48 8d 3d bd 26 00 00 	lea    0x26bd(%rip),%rdi        # 404318 <_IO_stdin_used+0x318>
  401c5b:	b8 00 00 00 00       	mov    $0x0,%eax
  401c60:	e8 5b f4 ff ff       	call   4010c0 <printf@plt>
  401c65:	bf 02 00 00 00       	mov    $0x2,%edi
  401c6a:	e8 c8 05 00 00       	call   402237 <fail>
  401c6f:	bf 00 00 00 00       	mov    $0x0,%edi
  401c74:	e8 87 f5 ff ff       	call   401200 <exit@plt>
  401c79:	48 8d 3d 70 26 00 00 	lea    0x2670(%rip),%rdi        # 4042f0 <_IO_stdin_used+0x2f0>
  401c80:	b8 00 00 00 00       	mov    $0x0,%eax
  401c85:	e8 36 f4 ff ff       	call   4010c0 <printf@plt>
  401c8a:	bf 02 00 00 00       	mov    $0x2,%edi
  401c8f:	e8 e5 04 00 00       	call   402179 <validate>
  401c94:	eb d9                	jmp    401c6f <touch2+0x33>

0000000000401c96 <hexmatch>:
  401c96:	41 54                	push   %r12
  401c98:	55                   	push   %rbp
  401c99:	53                   	push   %rbx
  401c9a:	48 83 ec 70          	sub    $0x70,%rsp
  401c9e:	89 fd                	mov    %edi,%ebp
  401ca0:	48 89 f3             	mov    %rsi,%rbx
  401ca3:	e8 c8 f4 ff ff       	call   401170 <random@plt>
  401ca8:	48 89 c1             	mov    %rax,%rcx
  401cab:	48 ba 0b d7 a3 70 3d 	movabs $0xa3d70a3d70a3d70b,%rdx
  401cb2:	0a d7 a3 
  401cb5:	48 f7 ea             	imul   %rdx
  401cb8:	48 01 ca             	add    %rcx,%rdx
  401cbb:	48 c1 fa 06          	sar    $0x6,%rdx
  401cbf:	48 89 c8             	mov    %rcx,%rax
  401cc2:	48 c1 f8 3f          	sar    $0x3f,%rax
  401cc6:	48 29 c2             	sub    %rax,%rdx
  401cc9:	48 8d 04 92          	lea    (%rdx,%rdx,4),%rax
  401ccd:	48 8d 04 80          	lea    (%rax,%rax,4),%rax
  401cd1:	48 c1 e0 02          	shl    $0x2,%rax
  401cd5:	48 29 c1             	sub    %rax,%rcx
  401cd8:	4c 8d 24 0c          	lea    (%rsp,%rcx,1),%r12
  401cdc:	89 ea                	mov    %ebp,%edx
  401cde:	48 8d 35 03 26 00 00 	lea    0x2603(%rip),%rsi        # 4042e8 <_IO_stdin_used+0x2e8>
  401ce5:	4c 89 e7             	mov    %r12,%rdi
  401ce8:	b8 00 00 00 00       	mov    $0x0,%eax
  401ced:	e8 fe f4 ff ff       	call   4011f0 <sprintf@plt>
  401cf2:	ba 09 00 00 00       	mov    $0x9,%edx
  401cf7:	4c 89 e6             	mov    %r12,%rsi
  401cfa:	48 89 df             	mov    %rbx,%rdi
  401cfd:	e8 5e f3 ff ff       	call   401060 <strncmp@plt>
  401d02:	85 c0                	test   %eax,%eax
  401d04:	0f 94 c0             	sete   %al
  401d07:	0f b6 c0             	movzbl %al,%eax
  401d0a:	48 83 c4 70          	add    $0x70,%rsp
  401d0e:	5b                   	pop    %rbx
  401d0f:	5d                   	pop    %rbp
  401d10:	41 5c                	pop    %r12
  401d12:	c3                   	ret

0000000000401d13 <touch3>:
  401d13:	53                   	push   %rbx
  401d14:	48 89 fb             	mov    %rdi,%rbx
  401d17:	c7 05 03 58 00 00 03 	movl   $0x3,0x5803(%rip)        # 407524 <vlevel>
  401d1e:	00 00 00 
  401d21:	48 89 fe             	mov    %rdi,%rsi
  401d24:	8b 3d 02 58 00 00    	mov    0x5802(%rip),%edi        # 40752c <cookie>
  401d2a:	e8 67 ff ff ff       	call   401c96 <hexmatch>
  401d2f:	85 c0                	test   %eax,%eax
  401d31:	74 28                	je     401d5b <touch3+0x48>
  401d33:	48 89 de             	mov    %rbx,%rsi
  401d36:	48 8d 3d 03 26 00 00 	lea    0x2603(%rip),%rdi        # 404340 <_IO_stdin_used+0x340>
  401d3d:	b8 00 00 00 00       	mov    $0x0,%eax
  401d42:	e8 79 f3 ff ff       	call   4010c0 <printf@plt>
  401d47:	bf 03 00 00 00       	mov    $0x3,%edi
  401d4c:	e8 28 04 00 00       	call   402179 <validate>
  401d51:	bf 00 00 00 00       	mov    $0x0,%edi
  401d56:	e8 a5 f4 ff ff       	call   401200 <exit@plt>
  401d5b:	48 89 de             	mov    %rbx,%rsi
  401d5e:	48 8d 3d 03 26 00 00 	lea    0x2603(%rip),%rdi        # 404368 <_IO_stdin_used+0x368>
  401d65:	b8 00 00 00 00       	mov    $0x0,%eax
  401d6a:	e8 51 f3 ff ff       	call   4010c0 <printf@plt>
  401d6f:	bf 03 00 00 00       	mov    $0x3,%edi
  401d74:	e8 be 04 00 00       	call   402237 <fail>
  401d79:	eb d6                	jmp    401d51 <touch3+0x3e>

0000000000401d7b <test>:
  401d7b:	48 83 ec 08          	sub    $0x8,%rsp
  401d7f:	b8 00 00 00 00       	mov    $0x0,%eax
  401d84:	e8 6f fe ff ff       	call   401bf8 <getbuf>
  401d89:	89 c6                	mov    %eax,%esi
  401d8b:	48 8d 3d fe 25 00 00 	lea    0x25fe(%rip),%rdi        # 404390 <_IO_stdin_used+0x390>
  401d92:	b8 00 00 00 00       	mov    $0x0,%eax
  401d97:	e8 24 f3 ff ff       	call   4010c0 <printf@plt>
  401d9c:	48 83 c4 08          	add    $0x8,%rsp
  401da0:	c3                   	ret

0000000000401da1 <start_farm>:
  401da1:	b8 01 00 00 00       	mov    $0x1,%eax
  401da6:	c3                   	ret

0000000000401da7 <getval_298>:
  401da7:	b8 58 91 90 90       	mov    $0x90909158,%eax
  401dac:	c3                   	ret

0000000000401dad <setval_181>:
  401dad:	c7 07 58 90 90 c3    	movl   $0xc3909058,(%rdi)
  401db3:	c3                   	ret

0000000000401db4 <addval_386>:
  401db4:	8d 87 48 89 c7 c3    	lea    -0x3c3876b8(%rdi),%eax
  401dba:	c3                   	ret

0000000000401dbb <setval_355>:
  401dbb:	c7 07 87 48 90 c3    	movl   $0xc3904887,(%rdi)
  401dc1:	c3                   	ret

0000000000401dc2 <addval_208>:
  401dc2:	8d 87 48 89 c7 91    	lea    -0x6e3876b8(%rdi),%eax
  401dc8:	c3                   	ret

0000000000401dc9 <setval_398>:
  401dc9:	c7 07 a7 58 90 90    	movl   $0x909058a7,(%rdi)
  401dcf:	c3                   	ret

0000000000401dd0 <setval_476>:
  401dd0:	c7 07 61 48 89 c7    	movl   $0xc7894861,(%rdi)
  401dd6:	c3                   	ret

0000000000401dd7 <getval_256>:
  401dd7:	b8 48 8b c7 c3       	mov    $0xc3c78b48,%eax
  401ddc:	c3                   	ret

0000000000401ddd <mid_farm>:
  401ddd:	b8 01 00 00 00       	mov    $0x1,%eax
  401de2:	c3                   	ret

0000000000401de3 <add_xy>:
  401de3:	48 8d 04 37          	lea    (%rdi,%rsi,1),%rax
  401de7:	c3                   	ret

0000000000401de8 <setval_340>:
  401de8:	c7 07 c9 ce c3 56    	movl   $0x56c3cec9,(%rdi)
  401dee:	c3                   	ret

0000000000401def <getval_349>:
  401def:	b8 89 ce 94 c0       	mov    $0xc094ce89,%eax
  401df4:	c3                   	ret

0000000000401df5 <addval_114>:
  401df5:	8d 87 48 89 e0 91    	lea    -0x6e1f76b8(%rdi),%eax
  401dfb:	c3                   	ret

0000000000401dfc <addval_477>:
  401dfc:	8d 87 89 ce 60 d2    	lea    -0x2d9f3177(%rdi),%eax
  401e02:	c3                   	ret

0000000000401e03 <setval_177>:
  401e03:	c7 07 89 d1 38 c9    	movl   $0xc938d189,(%rdi)
  401e09:	c3                   	ret

0000000000401e0a <addval_357>:
  401e0a:	8d 87 b8 81 c2 90    	lea    -0x6f3d7e48(%rdi),%eax
  401e10:	c3                   	ret

0000000000401e11 <addval_104>:
  401e11:	8d 87 a9 d1 90 c3    	lea    -0x3c6f2e57(%rdi),%eax
  401e17:	c3                   	ret

0000000000401e18 <setval_485>:
  401e18:	c7 07 48 89 e0 92    	movl   $0x92e08948,(%rdi)
  401e1e:	c3                   	ret

0000000000401e1f <setval_146>:
  401e1f:	c7 07 48 88 e0 90    	movl   $0x90e08848,(%rdi)
  401e25:	c3                   	ret

0000000000401e26 <addval_220>:
  401e26:	8d 87 89 ce 18 c0    	lea    -0x3fe73177(%rdi),%eax
  401e2c:	c3                   	ret

0000000000401e2d <addval_200>:
  401e2d:	8d 87 8d c2 20 c9    	lea    -0x36df3d73(%rdi),%eax
  401e33:	c3                   	ret

0000000000401e34 <setval_323>:
  401e34:	c7 07 89 c2 08 c0    	movl   $0xc008c289,(%rdi)
  401e3a:	c3                   	ret

0000000000401e3b <getval_361>:
  401e3b:	b8 89 d1 c4 db       	mov    $0xdbc4d189,%eax
  401e40:	c3                   	ret

0000000000401e41 <getval_448>:
  401e41:	b8 48 89 e0 94       	mov    $0x94e08948,%eax
  401e46:	c3                   	ret

0000000000401e47 <setval_423>:
  401e47:	c7 07 89 d1 38 c9    	movl   $0xc938d189,(%rdi)
  401e4d:	c3                   	ret

0000000000401e4e <setval_318>:
  401e4e:	c7 07 81 c2 08 db    	movl   $0xdb08c281,(%rdi)
  401e54:	c3                   	ret

0000000000401e55 <setval_314>:
  401e55:	c7 07 48 89 e0 c7    	movl   $0xc7e08948,(%rdi)
  401e5b:	c3                   	ret

0000000000401e5c <getval_132>:
  401e5c:	b8 89 d1 c2 7b       	mov    $0x7bc2d189,%eax
  401e61:	c3                   	ret

0000000000401e62 <addval_315>:
  401e62:	8d 87 89 ce 84 c9    	lea    -0x367b3177(%rdi),%eax
  401e68:	c3                   	ret

0000000000401e69 <getval_411>:
  401e69:	b8 48 89 e0 90       	mov    $0x90e08948,%eax
  401e6e:	c3                   	ret

0000000000401e6f <setval_434>:
  401e6f:	c7 07 c9 ce 90 c3    	movl   $0xc390cec9,(%rdi)
  401e75:	c3                   	ret

0000000000401e76 <getval_118>:
  401e76:	b8 81 c2 20 c9       	mov    $0xc920c281,%eax
  401e7b:	c3                   	ret

0000000000401e7c <setval_165>:
  401e7c:	c7 07 89 ce 08 c0    	movl   $0xc008ce89,(%rdi)
  401e82:	c3                   	ret

0000000000401e83 <getval_201>:
  401e83:	b8 81 d1 84 d2       	mov    $0xd284d181,%eax
  401e88:	c3                   	ret

0000000000401e89 <setval_244>:
  401e89:	c7 07 89 c2 30 d2    	movl   $0xd230c289,(%rdi)
  401e8f:	c3                   	ret

0000000000401e90 <getval_109>:
  401e90:	b8 48 89 e0 c3       	mov    $0xc3e08948,%eax
  401e95:	c3                   	ret

0000000000401e96 <addval_329>:
  401e96:	8d 87 89 c2 38 db    	lea    -0x24c73d77(%rdi),%eax
  401e9c:	c3                   	ret

0000000000401e9d <getval_379>:
  401e9d:	b8 48 89 e0 c7       	mov    $0xc7e08948,%eax
  401ea2:	c3                   	ret

0000000000401ea3 <addval_154>:
  401ea3:	8d 87 8d ce 08 c0    	lea    -0x3ff73173(%rdi),%eax
  401ea9:	c3                   	ret

0000000000401eaa <getval_189>:
  401eaa:	b8 81 d1 20 db       	mov    $0xdb20d181,%eax
  401eaf:	c3                   	ret

0000000000401eb0 <addval_483>:
  401eb0:	8d 87 c9 d1 90 90    	lea    -0x6f6f2e37(%rdi),%eax
  401eb6:	c3                   	ret

0000000000401eb7 <addval_301>:
  401eb7:	8d 87 89 c2 28 c0    	lea    -0x3fd73d77(%rdi),%eax
  401ebd:	c3                   	ret

0000000000401ebe <end_farm>:
  401ebe:	b8 01 00 00 00       	mov    $0x1,%eax
  401ec3:	c3                   	ret

0000000000401ec4 <save_char>:
  401ec4:	8b 05 7a 62 00 00    	mov    0x627a(%rip),%eax        # 408144 <gets_cnt>
  401eca:	3d ff 03 00 00       	cmp    $0x3ff,%eax
  401ecf:	7f 4a                	jg     401f1b <save_char+0x57>
  401ed1:	89 f9                	mov    %edi,%ecx
  401ed3:	c0 e9 04             	shr    $0x4,%cl
  401ed6:	8d 14 40             	lea    (%rax,%rax,2),%edx
  401ed9:	4c 8d 05 d0 27 00 00 	lea    0x27d0(%rip),%r8        # 4046b0 <trans_char>
  401ee0:	83 e1 0f             	and    $0xf,%ecx
  401ee3:	45 0f b6 0c 08       	movzbl (%r8,%rcx,1),%r9d
  401ee8:	48 8d 0d 51 56 00 00 	lea    0x5651(%rip),%rcx        # 407540 <gets_buf>
  401eef:	48 63 f2             	movslq %edx,%rsi
  401ef2:	44 88 0c 31          	mov    %r9b,(%rcx,%rsi,1)
  401ef6:	8d 72 01             	lea    0x1(%rdx),%esi
  401ef9:	83 e7 0f             	and    $0xf,%edi
  401efc:	41 0f b6 3c 38       	movzbl (%r8,%rdi,1),%edi
  401f01:	48 63 f6             	movslq %esi,%rsi
  401f04:	40 88 3c 31          	mov    %dil,(%rcx,%rsi,1)
  401f08:	83 c2 02             	add    $0x2,%edx
  401f0b:	48 63 d2             	movslq %edx,%rdx
  401f0e:	c6 04 11 20          	movb   $0x20,(%rcx,%rdx,1)
  401f12:	83 c0 01             	add    $0x1,%eax
  401f15:	89 05 29 62 00 00    	mov    %eax,0x6229(%rip)        # 408144 <gets_cnt>
  401f1b:	c3                   	ret

0000000000401f1c <save_term>:
  401f1c:	8b 05 22 62 00 00    	mov    0x6222(%rip),%eax        # 408144 <gets_cnt>
  401f22:	8d 04 40             	lea    (%rax,%rax,2),%eax
  401f25:	48 98                	cltq
  401f27:	48 8d 15 12 56 00 00 	lea    0x5612(%rip),%rdx        # 407540 <gets_buf>
  401f2e:	c6 04 02 00          	movb   $0x0,(%rdx,%rax,1)
  401f32:	c3                   	ret

0000000000401f33 <check_fail>:
  401f33:	48 83 ec 08          	sub    $0x8,%rsp
  401f37:	0f be 35 ab 55 00 00 	movsbl 0x55ab(%rip),%esi        # 4074e9 <target_prefix>
  401f3e:	48 8d 0d fb 55 00 00 	lea    0x55fb(%rip),%rcx        # 407540 <gets_buf>
  401f45:	8b 15 d5 55 00 00    	mov    0x55d5(%rip),%edx        # 407520 <check_level>
  401f4b:	48 8d 3d 61 24 00 00 	lea    0x2461(%rip),%rdi        # 4043b3 <_IO_stdin_used+0x3b3>
  401f52:	b8 00 00 00 00       	mov    $0x0,%eax
  401f57:	e8 64 f1 ff ff       	call   4010c0 <printf@plt>
  401f5c:	bf 01 00 00 00       	mov    $0x1,%edi
  401f61:	e8 9a f2 ff ff       	call   401200 <exit@plt>

0000000000401f66 <Gets>:
  401f66:	41 54                	push   %r12
  401f68:	55                   	push   %rbp
  401f69:	53                   	push   %rbx
  401f6a:	49 89 fc             	mov    %rdi,%r12
  401f6d:	c7 05 cd 61 00 00 00 	movl   $0x0,0x61cd(%rip)        # 408144 <gets_cnt>
  401f74:	00 00 00 
  401f77:	48 89 fb             	mov    %rdi,%rbx
  401f7a:	eb 11                	jmp    401f8d <Gets+0x27>
  401f7c:	48 8d 6b 01          	lea    0x1(%rbx),%rbp
  401f80:	88 03                	mov    %al,(%rbx)
  401f82:	0f b6 f8             	movzbl %al,%edi
  401f85:	e8 3a ff ff ff       	call   401ec4 <save_char>
  401f8a:	48 89 eb             	mov    %rbp,%rbx
  401f8d:	48 8b 3d 84 55 00 00 	mov    0x5584(%rip),%rdi        # 407518 <infile>
  401f94:	e8 87 f2 ff ff       	call   401220 <getc@plt>
  401f99:	83 f8 ff             	cmp    $0xffffffff,%eax
  401f9c:	74 05                	je     401fa3 <Gets+0x3d>
  401f9e:	83 f8 0a             	cmp    $0xa,%eax
  401fa1:	75 d9                	jne    401f7c <Gets+0x16>
  401fa3:	c6 03 00             	movb   $0x0,(%rbx)
  401fa6:	b8 00 00 00 00       	mov    $0x0,%eax
  401fab:	e8 6c ff ff ff       	call   401f1c <save_term>
  401fb0:	4c 89 e0             	mov    %r12,%rax
  401fb3:	5b                   	pop    %rbx
  401fb4:	5d                   	pop    %rbp
  401fb5:	41 5c                	pop    %r12
  401fb7:	c3                   	ret

0000000000401fb8 <notify_server>:
  401fb8:	83 3d 71 55 00 00 00 	cmpl   $0x0,0x5571(%rip)        # 407530 <is_checker>
  401fbf:	0f 85 b3 01 00 00    	jne    402178 <notify_server+0x1c0>
  401fc5:	55                   	push   %rbp
  401fc6:	53                   	push   %rbx
  401fc7:	48 81 ec 08 40 00 00 	sub    $0x4008,%rsp
  401fce:	89 fb                	mov    %edi,%ebx
  401fd0:	81 3d 6a 61 00 00 9c 	cmpl   $0x1f9c,0x616a(%rip)        # 408144 <gets_cnt>
  401fd7:	1f 00 00 
  401fda:	0f 8f b8 00 00 00    	jg     402098 <notify_server+0xe0>
  401fe0:	44 0f be 0d 01 55 00 	movsbl 0x5501(%rip),%r9d        # 4074e9 <target_prefix>
  401fe7:	00 
  401fe8:	83 3d 99 54 00 00 00 	cmpl   $0x0,0x5499(%rip)        # 407488 <notify>
  401fef:	0f 84 be 00 00 00    	je     4020b3 <notify_server+0xfb>
  401ff5:	44 8b 05 2c 55 00 00 	mov    0x552c(%rip),%r8d        # 407528 <authkey>
  401ffc:	85 db                	test   %ebx,%ebx
  401ffe:	0f 84 ba 00 00 00    	je     4020be <notify_server+0x106>
  402004:	48 8d 2d c3 23 00 00 	lea    0x23c3(%rip),%rbp        # 4043ce <_IO_stdin_used+0x3ce>
  40200b:	48 8d bc 24 00 20 00 	lea    0x2000(%rsp),%rdi
  402012:	00 
  402013:	48 8d 05 26 55 00 00 	lea    0x5526(%rip),%rax        # 407540 <gets_buf>
  40201a:	50                   	push   %rax
  40201b:	56                   	push   %rsi
  40201c:	48 89 e9             	mov    %rbp,%rcx
  40201f:	8b 15 0b 51 00 00    	mov    0x510b(%rip),%edx        # 407130 <target_id>
  402025:	48 8d 35 a7 23 00 00 	lea    0x23a7(%rip),%rsi        # 4043d3 <_IO_stdin_used+0x3d3>
  40202c:	b8 00 00 00 00       	mov    $0x0,%eax
  402031:	e8 ba f1 ff ff       	call   4011f0 <sprintf@plt>
  402036:	48 83 c4 10          	add    $0x10,%rsp
  40203a:	83 3d 47 54 00 00 00 	cmpl   $0x0,0x5447(%rip)        # 407488 <notify>
  402041:	0f 84 b7 00 00 00    	je     4020fe <notify_server+0x146>
  402047:	85 db                	test   %ebx,%ebx
  402049:	0f 84 99 00 00 00    	je     4020e8 <notify_server+0x130>
  40204f:	48 8d 8c 24 00 20 00 	lea    0x2000(%rsp),%rcx
  402056:	00 
  402057:	49 89 e1             	mov    %rsp,%r9
  40205a:	41 b8 00 00 00 00    	mov    $0x0,%r8d
  402060:	48 8b 15 e1 50 00 00 	mov    0x50e1(%rip),%rdx        # 407148 <lab>
  402067:	48 8b 35 12 54 00 00 	mov    0x5412(%rip),%rsi        # 407480 <course>
  40206e:	48 8b 3d cb 50 00 00 	mov    0x50cb(%rip),%rdi        # 407140 <user_id>
  402075:	e8 20 10 00 00       	call   40309a <driver_post>
  40207a:	85 c0                	test   %eax,%eax
  40207c:	78 4c                	js     4020ca <notify_server+0x112>
  40207e:	48 8d 3d 93 24 00 00 	lea    0x2493(%rip),%rdi        # 404518 <_IO_stdin_used+0x518>
  402085:	e8 f6 ef ff ff       	call   401080 <puts@plt>
  40208a:	48 8d 3d 6a 23 00 00 	lea    0x236a(%rip),%rdi        # 4043fb <_IO_stdin_used+0x3fb>
  402091:	e8 ea ef ff ff       	call   401080 <puts@plt>
  402096:	eb 5c                	jmp    4020f4 <notify_server+0x13c>
  402098:	48 8d 3d 49 24 00 00 	lea    0x2449(%rip),%rdi        # 4044e8 <_IO_stdin_used+0x4e8>
  40209f:	b8 00 00 00 00       	mov    $0x0,%eax
  4020a4:	e8 17 f0 ff ff       	call   4010c0 <printf@plt>
  4020a9:	bf 01 00 00 00       	mov    $0x1,%edi
  4020ae:	e8 4d f1 ff ff       	call   401200 <exit@plt>
  4020b3:	41 b8 ff ff ff ff    	mov    $0xffffffff,%r8d
  4020b9:	e9 3e ff ff ff       	jmp    401ffc <notify_server+0x44>
  4020be:	48 8d 2d 04 23 00 00 	lea    0x2304(%rip),%rbp        # 4043c9 <_IO_stdin_used+0x3c9>
  4020c5:	e9 41 ff ff ff       	jmp    40200b <notify_server+0x53>
  4020ca:	48 89 e6             	mov    %rsp,%rsi
  4020cd:	48 8d 3d 1b 23 00 00 	lea    0x231b(%rip),%rdi        # 4043ef <_IO_stdin_used+0x3ef>
  4020d4:	b8 00 00 00 00       	mov    $0x0,%eax
  4020d9:	e8 e2 ef ff ff       	call   4010c0 <printf@plt>
  4020de:	bf 01 00 00 00       	mov    $0x1,%edi
  4020e3:	e8 18 f1 ff ff       	call   401200 <exit@plt>
  4020e8:	48 8d 3d 16 23 00 00 	lea    0x2316(%rip),%rdi        # 404405 <_IO_stdin_used+0x405>
  4020ef:	e8 8c ef ff ff       	call   401080 <puts@plt>
  4020f4:	48 81 c4 08 40 00 00 	add    $0x4008,%rsp
  4020fb:	5b                   	pop    %rbx
  4020fc:	5d                   	pop    %rbp
  4020fd:	c3                   	ret
  4020fe:	48 89 ee             	mov    %rbp,%rsi
  402101:	48 8d 3d 48 24 00 00 	lea    0x2448(%rip),%rdi        # 404550 <_IO_stdin_used+0x550>
  402108:	b8 00 00 00 00       	mov    $0x0,%eax
  40210d:	e8 ae ef ff ff       	call   4010c0 <printf@plt>
  402112:	48 8b 35 27 50 00 00 	mov    0x5027(%rip),%rsi        # 407140 <user_id>
  402119:	48 8d 3d ec 22 00 00 	lea    0x22ec(%rip),%rdi        # 40440c <_IO_stdin_used+0x40c>
  402120:	b8 00 00 00 00       	mov    $0x0,%eax
  402125:	e8 96 ef ff ff       	call   4010c0 <printf@plt>
  40212a:	48 8b 35 4f 53 00 00 	mov    0x534f(%rip),%rsi        # 407480 <course>
  402131:	48 8d 3d e1 22 00 00 	lea    0x22e1(%rip),%rdi        # 404419 <_IO_stdin_used+0x419>
  402138:	b8 00 00 00 00       	mov    $0x0,%eax
  40213d:	e8 7e ef ff ff       	call   4010c0 <printf@plt>
  402142:	48 8b 35 ff 4f 00 00 	mov    0x4fff(%rip),%rsi        # 407148 <lab>
  402149:	48 8d 3d d5 22 00 00 	lea    0x22d5(%rip),%rdi        # 404425 <_IO_stdin_used+0x425>
  402150:	b8 00 00 00 00       	mov    $0x0,%eax
  402155:	e8 66 ef ff ff       	call   4010c0 <printf@plt>
  40215a:	48 8d b4 24 00 20 00 	lea    0x2000(%rsp),%rsi
  402161:	00 
  402162:	48 8d 3d c5 22 00 00 	lea    0x22c5(%rip),%rdi        # 40442e <_IO_stdin_used+0x42e>
  402169:	b8 00 00 00 00       	mov    $0x0,%eax
  40216e:	e8 4d ef ff ff       	call   4010c0 <printf@plt>
  402173:	e9 7c ff ff ff       	jmp    4020f4 <notify_server+0x13c>
  402178:	c3                   	ret

0000000000402179 <validate>:
  402179:	53                   	push   %rbx
  40217a:	89 fb                	mov    %edi,%ebx
  40217c:	83 3d ad 53 00 00 00 	cmpl   $0x0,0x53ad(%rip)        # 407530 <is_checker>
  402183:	74 68                	je     4021ed <validate+0x74>
  402185:	39 3d 99 53 00 00    	cmp    %edi,0x5399(%rip)        # 407524 <vlevel>
  40218b:	75 2d                	jne    4021ba <validate+0x41>
  40218d:	8b 35 8d 53 00 00    	mov    0x538d(%rip),%esi        # 407520 <check_level>
  402193:	39 fe                	cmp    %edi,%esi
  402195:	75 39                	jne    4021d0 <validate+0x57>
  402197:	0f be 35 4b 53 00 00 	movsbl 0x534b(%rip),%esi        # 4074e9 <target_prefix>
  40219e:	48 8d 0d 9b 53 00 00 	lea    0x539b(%rip),%rcx        # 407540 <gets_buf>
  4021a5:	89 fa                	mov    %edi,%edx
  4021a7:	48 8d 3d aa 22 00 00 	lea    0x22aa(%rip),%rdi        # 404458 <_IO_stdin_used+0x458>
  4021ae:	b8 00 00 00 00       	mov    $0x0,%eax
  4021b3:	e8 08 ef ff ff       	call   4010c0 <printf@plt>
  4021b8:	5b                   	pop    %rbx
  4021b9:	c3                   	ret
  4021ba:	48 8d 3d 79 22 00 00 	lea    0x2279(%rip),%rdi        # 40443a <_IO_stdin_used+0x43a>
  4021c1:	e8 ba ee ff ff       	call   401080 <puts@plt>
  4021c6:	b8 00 00 00 00       	mov    $0x0,%eax
  4021cb:	e8 63 fd ff ff       	call   401f33 <check_fail>
  4021d0:	89 fa                	mov    %edi,%edx
  4021d2:	48 8d 3d 9f 23 00 00 	lea    0x239f(%rip),%rdi        # 404578 <_IO_stdin_used+0x578>
  4021d9:	b8 00 00 00 00       	mov    $0x0,%eax
  4021de:	e8 dd ee ff ff       	call   4010c0 <printf@plt>
  4021e3:	b8 00 00 00 00       	mov    $0x0,%eax
  4021e8:	e8 46 fd ff ff       	call   401f33 <check_fail>
  4021ed:	39 3d 31 53 00 00    	cmp    %edi,0x5331(%rip)        # 407524 <vlevel>
  4021f3:	74 1a                	je     40220f <validate+0x96>
  4021f5:	48 8d 3d 3e 22 00 00 	lea    0x223e(%rip),%rdi        # 40443a <_IO_stdin_used+0x43a>
  4021fc:	e8 7f ee ff ff       	call   401080 <puts@plt>
  402201:	89 de                	mov    %ebx,%esi
  402203:	bf 00 00 00 00       	mov    $0x0,%edi
  402208:	e8 ab fd ff ff       	call   401fb8 <notify_server>
  40220d:	eb a9                	jmp    4021b8 <validate+0x3f>
  40220f:	0f be 15 d3 52 00 00 	movsbl 0x52d3(%rip),%edx        # 4074e9 <target_prefix>
  402216:	89 fe                	mov    %edi,%esi
  402218:	48 8d 3d 81 23 00 00 	lea    0x2381(%rip),%rdi        # 4045a0 <_IO_stdin_used+0x5a0>
  40221f:	b8 00 00 00 00       	mov    $0x0,%eax
  402224:	e8 97 ee ff ff       	call   4010c0 <printf@plt>
  402229:	89 de                	mov    %ebx,%esi
  40222b:	bf 01 00 00 00       	mov    $0x1,%edi
  402230:	e8 83 fd ff ff       	call   401fb8 <notify_server>
  402235:	eb 81                	jmp    4021b8 <validate+0x3f>

0000000000402237 <fail>:
  402237:	48 83 ec 08          	sub    $0x8,%rsp
  40223b:	83 3d ee 52 00 00 00 	cmpl   $0x0,0x52ee(%rip)        # 407530 <is_checker>
  402242:	75 11                	jne    402255 <fail+0x1e>
  402244:	89 fe                	mov    %edi,%esi
  402246:	bf 00 00 00 00       	mov    $0x0,%edi
  40224b:	e8 68 fd ff ff       	call   401fb8 <notify_server>
  402250:	48 83 c4 08          	add    $0x8,%rsp
  402254:	c3                   	ret
  402255:	b8 00 00 00 00       	mov    $0x0,%eax
  40225a:	e8 d4 fc ff ff       	call   401f33 <check_fail>

000000000040225f <bushandler>:
  40225f:	48 83 ec 08          	sub    $0x8,%rsp
  402263:	83 3d c6 52 00 00 00 	cmpl   $0x0,0x52c6(%rip)        # 407530 <is_checker>
  40226a:	74 16                	je     402282 <bushandler+0x23>
  40226c:	48 8d 3d fa 21 00 00 	lea    0x21fa(%rip),%rdi        # 40446d <_IO_stdin_used+0x46d>
  402273:	e8 08 ee ff ff       	call   401080 <puts@plt>
  402278:	b8 00 00 00 00       	mov    $0x0,%eax
  40227d:	e8 b1 fc ff ff       	call   401f33 <check_fail>
  402282:	48 8d 3d 4f 23 00 00 	lea    0x234f(%rip),%rdi        # 4045d8 <_IO_stdin_used+0x5d8>
  402289:	e8 f2 ed ff ff       	call   401080 <puts@plt>
  40228e:	48 8d 3d e2 21 00 00 	lea    0x21e2(%rip),%rdi        # 404477 <_IO_stdin_used+0x477>
  402295:	e8 e6 ed ff ff       	call   401080 <puts@plt>
  40229a:	be 00 00 00 00       	mov    $0x0,%esi
  40229f:	bf 00 00 00 00       	mov    $0x0,%edi
  4022a4:	e8 0f fd ff ff       	call   401fb8 <notify_server>
  4022a9:	bf 01 00 00 00       	mov    $0x1,%edi
  4022ae:	e8 4d ef ff ff       	call   401200 <exit@plt>

00000000004022b3 <seghandler>:
  4022b3:	48 83 ec 08          	sub    $0x8,%rsp
  4022b7:	83 3d 72 52 00 00 00 	cmpl   $0x0,0x5272(%rip)        # 407530 <is_checker>
  4022be:	74 16                	je     4022d6 <seghandler+0x23>
  4022c0:	48 8d 3d c6 21 00 00 	lea    0x21c6(%rip),%rdi        # 40448d <_IO_stdin_used+0x48d>
  4022c7:	e8 b4 ed ff ff       	call   401080 <puts@plt>
  4022cc:	b8 00 00 00 00       	mov    $0x0,%eax
  4022d1:	e8 5d fc ff ff       	call   401f33 <check_fail>
  4022d6:	48 8d 3d 1b 23 00 00 	lea    0x231b(%rip),%rdi        # 4045f8 <_IO_stdin_used+0x5f8>
  4022dd:	e8 9e ed ff ff       	call   401080 <puts@plt>
  4022e2:	48 8d 3d 8e 21 00 00 	lea    0x218e(%rip),%rdi        # 404477 <_IO_stdin_used+0x477>
  4022e9:	e8 92 ed ff ff       	call   401080 <puts@plt>
  4022ee:	be 00 00 00 00       	mov    $0x0,%esi
  4022f3:	bf 00 00 00 00       	mov    $0x0,%edi
  4022f8:	e8 bb fc ff ff       	call   401fb8 <notify_server>
  4022fd:	bf 01 00 00 00       	mov    $0x1,%edi
  402302:	e8 f9 ee ff ff       	call   401200 <exit@plt>

0000000000402307 <illegalhandler>:
  402307:	48 83 ec 08          	sub    $0x8,%rsp
  40230b:	83 3d 1e 52 00 00 00 	cmpl   $0x0,0x521e(%rip)        # 407530 <is_checker>
  402312:	74 16                	je     40232a <illegalhandler+0x23>
  402314:	48 8d 3d 85 21 00 00 	lea    0x2185(%rip),%rdi        # 4044a0 <_IO_stdin_used+0x4a0>
  40231b:	e8 60 ed ff ff       	call   401080 <puts@plt>
  402320:	b8 00 00 00 00       	mov    $0x0,%eax
  402325:	e8 09 fc ff ff       	call   401f33 <check_fail>
  40232a:	48 8d 3d ef 22 00 00 	lea    0x22ef(%rip),%rdi        # 404620 <_IO_stdin_used+0x620>
  402331:	e8 4a ed ff ff       	call   401080 <puts@plt>
  402336:	48 8d 3d 3a 21 00 00 	lea    0x213a(%rip),%rdi        # 404477 <_IO_stdin_used+0x477>
  40233d:	e8 3e ed ff ff       	call   401080 <puts@plt>
  402342:	be 00 00 00 00       	mov    $0x0,%esi
  402347:	bf 00 00 00 00       	mov    $0x0,%edi
  40234c:	e8 67 fc ff ff       	call   401fb8 <notify_server>
  402351:	bf 01 00 00 00       	mov    $0x1,%edi
  402356:	e8 a5 ee ff ff       	call   401200 <exit@plt>

000000000040235b <sigalrmhandler>:
  40235b:	48 83 ec 08          	sub    $0x8,%rsp
  40235f:	83 3d ca 51 00 00 00 	cmpl   $0x0,0x51ca(%rip)        # 407530 <is_checker>
  402366:	74 16                	je     40237e <sigalrmhandler+0x23>
  402368:	48 8d 3d 45 21 00 00 	lea    0x2145(%rip),%rdi        # 4044b4 <_IO_stdin_used+0x4b4>
  40236f:	e8 0c ed ff ff       	call   401080 <puts@plt>
  402374:	b8 00 00 00 00       	mov    $0x0,%eax
  402379:	e8 b5 fb ff ff       	call   401f33 <check_fail>
  40237e:	be 05 00 00 00       	mov    $0x5,%esi
  402383:	48 8d 3d c6 22 00 00 	lea    0x22c6(%rip),%rdi        # 404650 <_IO_stdin_used+0x650>
  40238a:	b8 00 00 00 00       	mov    $0x0,%eax
  40238f:	e8 2c ed ff ff       	call   4010c0 <printf@plt>
  402394:	be 00 00 00 00       	mov    $0x0,%esi
  402399:	bf 00 00 00 00       	mov    $0x0,%edi
  40239e:	e8 15 fc ff ff       	call   401fb8 <notify_server>
  4023a3:	bf 01 00 00 00       	mov    $0x1,%edi
  4023a8:	e8 53 ee ff ff       	call   401200 <exit@plt>

00000000004023ad <launch>:
  4023ad:	55                   	push   %rbp
  4023ae:	48 89 e5             	mov    %rsp,%rbp
  4023b1:	48 89 fa             	mov    %rdi,%rdx
  4023b4:	48 8d 47 17          	lea    0x17(%rdi),%rax
  4023b8:	48 83 e0 f0          	and    $0xfffffffffffffff0,%rax
  4023bc:	48 29 c4             	sub    %rax,%rsp
  4023bf:	48 8d 7c 24 0f       	lea    0xf(%rsp),%rdi
  4023c4:	48 83 e7 f0          	and    $0xfffffffffffffff0,%rdi
  4023c8:	be f4 00 00 00       	mov    $0xf4,%esi
  4023cd:	e8 fe ec ff ff       	call   4010d0 <memset@plt>
  4023d2:	48 8b 05 c7 50 00 00 	mov    0x50c7(%rip),%rax        # 4074a0 <stdin@GLIBC_2.2.5>
  4023d9:	48 39 05 38 51 00 00 	cmp    %rax,0x5138(%rip)        # 407518 <infile>
  4023e0:	74 2b                	je     40240d <launch+0x60>
  4023e2:	c7 05 38 51 00 00 00 	movl   $0x0,0x5138(%rip)        # 407524 <vlevel>
  4023e9:	00 00 00 
  4023ec:	b8 00 00 00 00       	mov    $0x0,%eax
  4023f1:	e8 85 f9 ff ff       	call   401d7b <test>
  4023f6:	83 3d 33 51 00 00 00 	cmpl   $0x0,0x5133(%rip)        # 407530 <is_checker>
  4023fd:	75 21                	jne    402420 <launch+0x73>
  4023ff:	48 8d 3d ce 20 00 00 	lea    0x20ce(%rip),%rdi        # 4044d4 <_IO_stdin_used+0x4d4>
  402406:	e8 75 ec ff ff       	call   401080 <puts@plt>
  40240b:	c9                   	leave
  40240c:	c3                   	ret
  40240d:	48 8d 3d a8 20 00 00 	lea    0x20a8(%rip),%rdi        # 4044bc <_IO_stdin_used+0x4bc>
  402414:	b8 00 00 00 00       	mov    $0x0,%eax
  402419:	e8 a2 ec ff ff       	call   4010c0 <printf@plt>
  40241e:	eb c2                	jmp    4023e2 <launch+0x35>
  402420:	48 8d 3d a2 20 00 00 	lea    0x20a2(%rip),%rdi        # 4044c9 <_IO_stdin_used+0x4c9>
  402427:	e8 54 ec ff ff       	call   401080 <puts@plt>
  40242c:	b8 00 00 00 00       	mov    $0x0,%eax
  402431:	e8 fd fa ff ff       	call   401f33 <check_fail>

0000000000402436 <stable_launch>:
  402436:	53                   	push   %rbx
  402437:	48 89 3d d2 50 00 00 	mov    %rdi,0x50d2(%rip)        # 407510 <global_offset>
  40243e:	41 b9 00 00 00 00    	mov    $0x0,%r9d
  402444:	41 b8 00 00 00 00    	mov    $0x0,%r8d
  40244a:	b9 32 01 00 00       	mov    $0x132,%ecx
  40244f:	ba 07 00 00 00       	mov    $0x7,%edx
  402454:	be 00 00 10 00       	mov    $0x100000,%esi
  402459:	bf 00 60 58 55       	mov    $0x55586000,%edi
  40245e:	e8 4d ec ff ff       	call   4010b0 <mmap@plt>
  402463:	48 89 c3             	mov    %rax,%rbx
  402466:	48 3d 00 60 58 55    	cmp    $0x55586000,%rax
  40246c:	75 43                	jne    4024b1 <stable_launch+0x7b>
  40246e:	48 8d 90 f8 ff 0f 00 	lea    0xffff8(%rax),%rdx
  402475:	48 89 15 8c 50 00 00 	mov    %rdx,0x508c(%rip)        # 407508 <stack_top>
  40247c:	48 89 e0             	mov    %rsp,%rax
  40247f:	48 89 d4             	mov    %rdx,%rsp
  402482:	48 89 c2             	mov    %rax,%rdx
  402485:	48 89 15 74 50 00 00 	mov    %rdx,0x5074(%rip)        # 407500 <global_save_stack>
  40248c:	48 8b 3d 7d 50 00 00 	mov    0x507d(%rip),%rdi        # 407510 <global_offset>
  402493:	e8 15 ff ff ff       	call   4023ad <launch>
  402498:	48 8b 05 61 50 00 00 	mov    0x5061(%rip),%rax        # 407500 <global_save_stack>
  40249f:	48 89 c4             	mov    %rax,%rsp
  4024a2:	be 00 00 10 00       	mov    $0x100000,%esi
  4024a7:	48 89 df             	mov    %rbx,%rdi
  4024aa:	e8 e1 ec ff ff       	call   401190 <munmap@plt>
  4024af:	5b                   	pop    %rbx
  4024b0:	c3                   	ret
  4024b1:	be 00 00 10 00       	mov    $0x100000,%esi
  4024b6:	48 89 c7             	mov    %rax,%rdi
  4024b9:	e8 d2 ec ff ff       	call   401190 <munmap@plt>
  4024be:	ba 00 60 58 55       	mov    $0x55586000,%edx
  4024c3:	48 8d 35 be 21 00 00 	lea    0x21be(%rip),%rsi        # 404688 <_IO_stdin_used+0x688>
  4024ca:	48 8b 3d 0f 50 00 00 	mov    0x500f(%rip),%rdi        # 4074e0 <stderr@GLIBC_2.2.5>
  4024d1:	b8 00 00 00 00       	mov    $0x0,%eax
  4024d6:	e8 55 ec ff ff       	call   401130 <fprintf@plt>
  4024db:	bf 01 00 00 00       	mov    $0x1,%edi
  4024e0:	e8 1b ed ff ff       	call   401200 <exit@plt>

00000000004024e5 <rio_readinitb>:
  4024e5:	89 37                	mov    %esi,(%rdi)
  4024e7:	c7 47 04 00 00 00 00 	movl   $0x0,0x4(%rdi)
  4024ee:	48 8d 47 10          	lea    0x10(%rdi),%rax
  4024f2:	48 89 47 08          	mov    %rax,0x8(%rdi)
  4024f6:	c3                   	ret

00000000004024f7 <sigalrm_handler>:
  4024f7:	48 83 ec 08          	sub    $0x8,%rsp
  4024fb:	ba 00 00 00 00       	mov    $0x0,%edx
  402500:	48 8d 35 b9 21 00 00 	lea    0x21b9(%rip),%rsi        # 4046c0 <trans_char+0x10>
  402507:	48 8b 3d d2 4f 00 00 	mov    0x4fd2(%rip),%rdi        # 4074e0 <stderr@GLIBC_2.2.5>
  40250e:	b8 00 00 00 00       	mov    $0x0,%eax
  402513:	e8 18 ec ff ff       	call   401130 <fprintf@plt>
  402518:	bf 01 00 00 00       	mov    $0x1,%edi
  40251d:	e8 de ec ff ff       	call   401200 <exit@plt>

0000000000402522 <urlencode>:
  402522:	41 54                	push   %r12
  402524:	55                   	push   %rbp
  402525:	53                   	push   %rbx
  402526:	48 83 ec 10          	sub    $0x10,%rsp
  40252a:	48 89 fb             	mov    %rdi,%rbx
  40252d:	48 89 f5             	mov    %rsi,%rbp
  402530:	e8 6b eb ff ff       	call   4010a0 <strlen@plt>
  402535:	eb 0e                	jmp    402545 <urlencode+0x23>
  402537:	88 55 00             	mov    %dl,0x0(%rbp)
  40253a:	48 8d 6d 01          	lea    0x1(%rbp),%rbp
  40253e:	48 83 c3 01          	add    $0x1,%rbx
  402542:	44 89 e0             	mov    %r12d,%eax
  402545:	44 8d 60 ff          	lea    -0x1(%rax),%r12d
  402549:	85 c0                	test   %eax,%eax
  40254b:	0f 84 95 00 00 00    	je     4025e6 <urlencode+0xc4>
  402551:	0f b6 13             	movzbl (%rbx),%edx
  402554:	80 fa 2a             	cmp    $0x2a,%dl
  402557:	0f 94 c1             	sete   %cl
  40255a:	80 fa 2d             	cmp    $0x2d,%dl
  40255d:	0f 94 c0             	sete   %al
  402560:	08 c1                	or     %al,%cl
  402562:	75 d3                	jne    402537 <urlencode+0x15>
  402564:	80 fa 2e             	cmp    $0x2e,%dl
  402567:	74 ce                	je     402537 <urlencode+0x15>
  402569:	80 fa 5f             	cmp    $0x5f,%dl
  40256c:	74 c9                	je     402537 <urlencode+0x15>
  40256e:	8d 42 d0             	lea    -0x30(%rdx),%eax
  402571:	3c 09                	cmp    $0x9,%al
  402573:	76 c2                	jbe    402537 <urlencode+0x15>
  402575:	8d 42 bf             	lea    -0x41(%rdx),%eax
  402578:	3c 19                	cmp    $0x19,%al
  40257a:	76 bb                	jbe    402537 <urlencode+0x15>
  40257c:	8d 42 9f             	lea    -0x61(%rdx),%eax
  40257f:	3c 19                	cmp    $0x19,%al
  402581:	76 b4                	jbe    402537 <urlencode+0x15>
  402583:	80 fa 20             	cmp    $0x20,%dl
  402586:	74 4c                	je     4025d4 <urlencode+0xb2>
  402588:	8d 42 e0             	lea    -0x20(%rdx),%eax
  40258b:	3c 5f                	cmp    $0x5f,%al
  40258d:	0f 96 c1             	setbe  %cl
  402590:	80 fa 09             	cmp    $0x9,%dl
  402593:	0f 94 c0             	sete   %al
  402596:	08 c1                	or     %al,%cl
  402598:	74 47                	je     4025e1 <urlencode+0xbf>
  40259a:	0f b6 d2             	movzbl %dl,%edx
  40259d:	48 8d 7c 24 08       	lea    0x8(%rsp),%rdi
  4025a2:	48 8d 35 ac 21 00 00 	lea    0x21ac(%rip),%rsi        # 404755 <trans_char+0xa5>
  4025a9:	b8 00 00 00 00       	mov    $0x0,%eax
  4025ae:	e8 3d ec ff ff       	call   4011f0 <sprintf@plt>
  4025b3:	0f b6 44 24 08       	movzbl 0x8(%rsp),%eax
  4025b8:	88 45 00             	mov    %al,0x0(%rbp)
  4025bb:	0f b6 44 24 09       	movzbl 0x9(%rsp),%eax
  4025c0:	88 45 01             	mov    %al,0x1(%rbp)
  4025c3:	0f b6 44 24 0a       	movzbl 0xa(%rsp),%eax
  4025c8:	88 45 02             	mov    %al,0x2(%rbp)
  4025cb:	48 8d 6d 03          	lea    0x3(%rbp),%rbp
  4025cf:	e9 6a ff ff ff       	jmp    40253e <urlencode+0x1c>
  4025d4:	c6 45 00 2b          	movb   $0x2b,0x0(%rbp)
  4025d8:	48 8d 6d 01          	lea    0x1(%rbp),%rbp
  4025dc:	e9 5d ff ff ff       	jmp    40253e <urlencode+0x1c>
  4025e1:	b8 ff ff ff ff       	mov    $0xffffffff,%eax
  4025e6:	48 83 c4 10          	add    $0x10,%rsp
  4025ea:	5b                   	pop    %rbx
  4025eb:	5d                   	pop    %rbp
  4025ec:	41 5c                	pop    %r12
  4025ee:	c3                   	ret

00000000004025ef <rio_writen>:
  4025ef:	41 55                	push   %r13
  4025f1:	41 54                	push   %r12
  4025f3:	55                   	push   %rbp
  4025f4:	53                   	push   %rbx
  4025f5:	48 83 ec 08          	sub    $0x8,%rsp
  4025f9:	41 89 fc             	mov    %edi,%r12d
  4025fc:	48 89 f5             	mov    %rsi,%rbp
  4025ff:	49 89 d5             	mov    %rdx,%r13
  402602:	48 89 d3             	mov    %rdx,%rbx
  402605:	eb 06                	jmp    40260d <rio_writen+0x1e>
  402607:	48 29 c3             	sub    %rax,%rbx
  40260a:	48 01 c5             	add    %rax,%rbp
  40260d:	48 85 db             	test   %rbx,%rbx
  402610:	74 24                	je     402636 <rio_writen+0x47>
  402612:	48 89 da             	mov    %rbx,%rdx
  402615:	48 89 ee             	mov    %rbp,%rsi
  402618:	44 89 e7             	mov    %r12d,%edi
  40261b:	e8 70 ea ff ff       	call   401090 <write@plt>
  402620:	48 85 c0             	test   %rax,%rax
  402623:	7f e2                	jg     402607 <rio_writen+0x18>
  402625:	e8 16 ea ff ff       	call   401040 <__errno_location@plt>
  40262a:	83 38 04             	cmpl   $0x4,(%rax)
  40262d:	75 15                	jne    402644 <rio_writen+0x55>
  40262f:	b8 00 00 00 00       	mov    $0x0,%eax
  402634:	eb d1                	jmp    402607 <rio_writen+0x18>
  402636:	4c 89 e8             	mov    %r13,%rax
  402639:	48 83 c4 08          	add    $0x8,%rsp
  40263d:	5b                   	pop    %rbx
  40263e:	5d                   	pop    %rbp
  40263f:	41 5c                	pop    %r12
  402641:	41 5d                	pop    %r13
  402643:	c3                   	ret
  402644:	48 c7 c0 ff ff ff ff 	mov    $0xffffffffffffffff,%rax
  40264b:	eb ec                	jmp    402639 <rio_writen+0x4a>

000000000040264d <rio_read>:
  40264d:	41 55                	push   %r13
  40264f:	41 54                	push   %r12
  402651:	55                   	push   %rbp
  402652:	53                   	push   %rbx
  402653:	48 83 ec 08          	sub    $0x8,%rsp
  402657:	48 89 fb             	mov    %rdi,%rbx
  40265a:	49 89 f5             	mov    %rsi,%r13
  40265d:	49 89 d4             	mov    %rdx,%r12
  402660:	eb 0a                	jmp    40266c <rio_read+0x1f>
  402662:	e8 d9 e9 ff ff       	call   401040 <__errno_location@plt>
  402667:	83 38 04             	cmpl   $0x4,(%rax)
  40266a:	75 5a                	jne    4026c6 <rio_read+0x79>
  40266c:	8b 6b 04             	mov    0x4(%rbx),%ebp
  40266f:	85 ed                	test   %ebp,%ebp
  402671:	7f 22                	jg     402695 <rio_read+0x48>
  402673:	48 8d 6b 10          	lea    0x10(%rbx),%rbp
  402677:	ba 00 20 00 00       	mov    $0x2000,%edx
  40267c:	48 89 ee             	mov    %rbp,%rsi
  40267f:	8b 3b                	mov    (%rbx),%edi
  402681:	e8 7a ea ff ff       	call   401100 <read@plt>
  402686:	89 43 04             	mov    %eax,0x4(%rbx)
  402689:	85 c0                	test   %eax,%eax
  40268b:	78 d5                	js     402662 <rio_read+0x15>
  40268d:	74 40                	je     4026cf <rio_read+0x82>
  40268f:	48 89 6b 08          	mov    %rbp,0x8(%rbx)
  402693:	eb d7                	jmp    40266c <rio_read+0x1f>
  402695:	89 e8                	mov    %ebp,%eax
  402697:	4c 39 e0             	cmp    %r12,%rax
  40269a:	72 03                	jb     40269f <rio_read+0x52>
  40269c:	44 89 e5             	mov    %r12d,%ebp
  40269f:	4c 63 e5             	movslq %ebp,%r12
  4026a2:	48 8b 73 08          	mov    0x8(%rbx),%rsi
  4026a6:	4c 89 e2             	mov    %r12,%rdx
  4026a9:	4c 89 ef             	mov    %r13,%rdi
  4026ac:	e8 9f ea ff ff       	call   401150 <memcpy@plt>
  4026b1:	4c 01 63 08          	add    %r12,0x8(%rbx)
  4026b5:	29 6b 04             	sub    %ebp,0x4(%rbx)
  4026b8:	4c 89 e0             	mov    %r12,%rax
  4026bb:	48 83 c4 08          	add    $0x8,%rsp
  4026bf:	5b                   	pop    %rbx
  4026c0:	5d                   	pop    %rbp
  4026c1:	41 5c                	pop    %r12
  4026c3:	41 5d                	pop    %r13
  4026c5:	c3                   	ret
  4026c6:	48 c7 c0 ff ff ff ff 	mov    $0xffffffffffffffff,%rax
  4026cd:	eb ec                	jmp    4026bb <rio_read+0x6e>
  4026cf:	b8 00 00 00 00       	mov    $0x0,%eax
  4026d4:	eb e5                	jmp    4026bb <rio_read+0x6e>

00000000004026d6 <rio_readlineb>:
  4026d6:	41 55                	push   %r13
  4026d8:	41 54                	push   %r12
  4026da:	55                   	push   %rbp
  4026db:	53                   	push   %rbx
  4026dc:	48 83 ec 18          	sub    $0x18,%rsp
  4026e0:	49 89 fd             	mov    %rdi,%r13
  4026e3:	48 89 f5             	mov    %rsi,%rbp
  4026e6:	49 89 d4             	mov    %rdx,%r12
  4026e9:	bb 01 00 00 00       	mov    $0x1,%ebx
  4026ee:	eb 18                	jmp    402708 <rio_readlineb+0x32>
  4026f0:	85 c0                	test   %eax,%eax
  4026f2:	75 55                	jne    402749 <rio_readlineb+0x73>
  4026f4:	48 83 fb 01          	cmp    $0x1,%rbx
  4026f8:	75 3d                	jne    402737 <rio_readlineb+0x61>
  4026fa:	b8 00 00 00 00       	mov    $0x0,%eax
  4026ff:	eb 3d                	jmp    40273e <rio_readlineb+0x68>
  402701:	48 83 c3 01          	add    $0x1,%rbx
  402705:	48 89 d5             	mov    %rdx,%rbp
  402708:	4c 39 e3             	cmp    %r12,%rbx
  40270b:	73 2a                	jae    402737 <rio_readlineb+0x61>
  40270d:	48 8d 74 24 0f       	lea    0xf(%rsp),%rsi
  402712:	ba 01 00 00 00       	mov    $0x1,%edx
  402717:	4c 89 ef             	mov    %r13,%rdi
  40271a:	e8 2e ff ff ff       	call   40264d <rio_read>
  40271f:	83 f8 01             	cmp    $0x1,%eax
  402722:	75 cc                	jne    4026f0 <rio_readlineb+0x1a>
  402724:	48 8d 55 01          	lea    0x1(%rbp),%rdx
  402728:	0f b6 44 24 0f       	movzbl 0xf(%rsp),%eax
  40272d:	88 45 00             	mov    %al,0x0(%rbp)
  402730:	3c 0a                	cmp    $0xa,%al
  402732:	75 cd                	jne    402701 <rio_readlineb+0x2b>
  402734:	48 89 d5             	mov    %rdx,%rbp
  402737:	c6 45 00 00          	movb   $0x0,0x0(%rbp)
  40273b:	48 89 d8             	mov    %rbx,%rax
  40273e:	48 83 c4 18          	add    $0x18,%rsp
  402742:	5b                   	pop    %rbx
  402743:	5d                   	pop    %rbp
  402744:	41 5c                	pop    %r12
  402746:	41 5d                	pop    %r13
  402748:	c3                   	ret
  402749:	48 c7 c0 ff ff ff ff 	mov    $0xffffffffffffffff,%rax
  402750:	eb ec                	jmp    40273e <rio_readlineb+0x68>

0000000000402752 <submitr>:
  402752:	41 57                	push   %r15
  402754:	41 56                	push   %r14
  402756:	41 55                	push   %r13
  402758:	41 54                	push   %r12
  40275a:	55                   	push   %rbp
  40275b:	53                   	push   %rbx
  40275c:	48 81 ec 58 a0 00 00 	sub    $0xa058,%rsp
  402763:	49 89 fc             	mov    %rdi,%r12
  402766:	89 74 24 10          	mov    %esi,0x10(%rsp)
  40276a:	49 89 d6             	mov    %rdx,%r14
  40276d:	48 89 4c 24 08       	mov    %rcx,0x8(%rsp)
  402772:	4c 89 44 24 18       	mov    %r8,0x18(%rsp)
  402777:	4d 89 cd             	mov    %r9,%r13
  40277a:	48 8b ac 24 90 a0 00 	mov    0xa090(%rsp),%rbp
  402781:	00 
  402782:	c7 84 24 2c 20 00 00 	movl   $0x0,0x202c(%rsp)
  402789:	00 00 00 00 
  40278d:	ba 00 00 00 00       	mov    $0x0,%edx
  402792:	be 01 00 00 00       	mov    $0x1,%esi
  402797:	bf 02 00 00 00       	mov    $0x2,%edi
  40279c:	e8 8f ea ff ff       	call   401230 <socket@plt>
  4027a1:	85 c0                	test   %eax,%eax
  4027a3:	0f 88 6c 02 00 00    	js     402a15 <submitr+0x2c3>
  4027a9:	89 c3                	mov    %eax,%ebx
  4027ab:	4c 89 e7             	mov    %r12,%rdi
  4027ae:	e8 6d e9 ff ff       	call   401120 <gethostbyname@plt>
  4027b3:	48 85 c0             	test   %rax,%rax
  4027b6:	0f 84 a5 02 00 00    	je     402a61 <submitr+0x30f>
  4027bc:	4c 8d bc 24 40 a0 00 	lea    0xa040(%rsp),%r15
  4027c3:	00 
  4027c4:	48 c7 84 24 40 a0 00 	movq   $0x0,0xa040(%rsp)
  4027cb:	00 00 00 00 00 
  4027d0:	48 c7 84 24 48 a0 00 	movq   $0x0,0xa048(%rsp)
  4027d7:	00 00 00 00 00 
  4027dc:	66 c7 84 24 40 a0 00 	movw   $0x2,0xa040(%rsp)
  4027e3:	00 02 00 
  4027e6:	48 8b 48 18          	mov    0x18(%rax),%rcx
  4027ea:	48 63 50 14          	movslq 0x14(%rax),%rdx
  4027ee:	48 8d bc 24 44 a0 00 	lea    0xa044(%rsp),%rdi
  4027f5:	00 
  4027f6:	48 8b 31             	mov    (%rcx),%rsi
  4027f9:	e8 a2 e9 ff ff       	call   4011a0 <memmove@plt>
  4027fe:	0f b7 74 24 10       	movzwl 0x10(%rsp),%esi
  402803:	66 c1 c6 08          	rol    $0x8,%si
  402807:	66 89 b4 24 42 a0 00 	mov    %si,0xa042(%rsp)
  40280e:	00 
  40280f:	ba 10 00 00 00       	mov    $0x10,%edx
  402814:	4c 89 fe             	mov    %r15,%rsi
  402817:	89 df                	mov    %ebx,%edi
  402819:	e8 f2 e9 ff ff       	call   401210 <connect@plt>
  40281e:	85 c0                	test   %eax,%eax
  402820:	0f 88 a3 02 00 00    	js     402ac9 <submitr+0x377>
  402826:	4c 89 ef             	mov    %r13,%rdi
  402829:	e8 72 e8 ff ff       	call   4010a0 <strlen@plt>
  40282e:	49 89 c7             	mov    %rax,%r15
  402831:	4c 89 f7             	mov    %r14,%rdi
  402834:	e8 67 e8 ff ff       	call   4010a0 <strlen@plt>
  402839:	48 89 44 24 10       	mov    %rax,0x10(%rsp)
  40283e:	48 8b 7c 24 08       	mov    0x8(%rsp),%rdi
  402843:	e8 58 e8 ff ff       	call   4010a0 <strlen@plt>
  402848:	48 03 44 24 10       	add    0x10(%rsp),%rax
  40284d:	48 89 44 24 10       	mov    %rax,0x10(%rsp)
  402852:	48 8b 7c 24 18       	mov    0x18(%rsp),%rdi
  402857:	e8 44 e8 ff ff       	call   4010a0 <strlen@plt>
  40285c:	48 03 44 24 10       	add    0x10(%rsp),%rax
  402861:	4b 8d 14 7f          	lea    (%r15,%r15,2),%rdx
  402865:	48 8d 84 10 80 00 00 	lea    0x80(%rax,%rdx,1),%rax
  40286c:	00 
  40286d:	48 3d 00 20 00 00    	cmp    $0x2000,%rax
  402873:	0f 87 aa 02 00 00    	ja     402b23 <submitr+0x3d1>
  402879:	48 8d b4 24 30 40 00 	lea    0x4030(%rsp),%rsi
  402880:	00 
  402881:	b9 00 04 00 00       	mov    $0x400,%ecx
  402886:	b8 00 00 00 00       	mov    $0x0,%eax
  40288b:	48 89 f7             	mov    %rsi,%rdi
  40288e:	f3 48 ab             	rep stos %rax,%es:(%rdi)
  402891:	4c 89 ef             	mov    %r13,%rdi
  402894:	e8 89 fc ff ff       	call   402522 <urlencode>
  402899:	85 c0                	test   %eax,%eax
  40289b:	0f 88 f5 02 00 00    	js     402b96 <submitr+0x444>
  4028a1:	4c 8d ac 24 30 60 00 	lea    0x6030(%rsp),%r13
  4028a8:	00 
  4028a9:	4d 89 e1             	mov    %r12,%r9
  4028ac:	4c 8d 84 24 30 40 00 	lea    0x4030(%rsp),%r8
  4028b3:	00 
  4028b4:	4c 89 f1             	mov    %r14,%rcx
  4028b7:	48 8b 54 24 08       	mov    0x8(%rsp),%rdx
  4028bc:	48 8d 35 25 1e 00 00 	lea    0x1e25(%rip),%rsi        # 4046e8 <trans_char+0x38>
  4028c3:	4c 89 ef             	mov    %r13,%rdi
  4028c6:	b8 00 00 00 00       	mov    $0x0,%eax
  4028cb:	e8 20 e9 ff ff       	call   4011f0 <sprintf@plt>
  4028d0:	4c 89 ef             	mov    %r13,%rdi
  4028d3:	e8 c8 e7 ff ff       	call   4010a0 <strlen@plt>
  4028d8:	48 89 c2             	mov    %rax,%rdx
  4028db:	4c 89 ee             	mov    %r13,%rsi
  4028de:	89 df                	mov    %ebx,%edi
  4028e0:	e8 0a fd ff ff       	call   4025ef <rio_writen>
  4028e5:	48 85 c0             	test   %rax,%rax
  4028e8:	0f 88 33 03 00 00    	js     402c21 <submitr+0x4cf>
  4028ee:	4c 8d a4 24 30 80 00 	lea    0x8030(%rsp),%r12
  4028f5:	00 
  4028f6:	89 de                	mov    %ebx,%esi
  4028f8:	4c 89 e7             	mov    %r12,%rdi
  4028fb:	e8 e5 fb ff ff       	call   4024e5 <rio_readinitb>
  402900:	48 8d b4 24 30 60 00 	lea    0x6030(%rsp),%rsi
  402907:	00 
  402908:	ba 00 20 00 00       	mov    $0x2000,%edx
  40290d:	4c 89 e7             	mov    %r12,%rdi
  402910:	e8 c1 fd ff ff       	call   4026d6 <rio_readlineb>
  402915:	48 85 c0             	test   %rax,%rax
  402918:	0f 8e 72 03 00 00    	jle    402c90 <submitr+0x53e>
  40291e:	48 8d 8c 24 2c 20 00 	lea    0x202c(%rsp),%rcx
  402925:	00 
  402926:	48 8d 94 24 30 20 00 	lea    0x2030(%rsp),%rdx
  40292d:	00 
  40292e:	48 8d bc 24 30 60 00 	lea    0x6030(%rsp),%rdi
  402935:	00 
  402936:	4c 8d 44 24 20       	lea    0x20(%rsp),%r8
  40293b:	48 8d 35 1a 1e 00 00 	lea    0x1e1a(%rip),%rsi        # 40475c <trans_char+0xac>
  402942:	b8 00 00 00 00       	mov    $0x0,%eax
  402947:	e8 34 e8 ff ff       	call   401180 <__isoc99_sscanf@plt>
  40294c:	48 8d b4 24 30 60 00 	lea    0x6030(%rsp),%rsi
  402953:	00 
  402954:	b9 03 00 00 00       	mov    $0x3,%ecx
  402959:	48 8d 3d 13 1e 00 00 	lea    0x1e13(%rip),%rdi        # 404773 <trans_char+0xc3>
  402960:	f3 a6                	repz cmpsb %es:(%rdi),%ds:(%rsi)
  402962:	0f 97 c0             	seta   %al
  402965:	1c 00                	sbb    $0x0,%al
  402967:	84 c0                	test   %al,%al
  402969:	0f 84 9f 03 00 00    	je     402d0e <submitr+0x5bc>
  40296f:	48 8d b4 24 30 60 00 	lea    0x6030(%rsp),%rsi
  402976:	00 
  402977:	48 8d bc 24 30 80 00 	lea    0x8030(%rsp),%rdi
  40297e:	00 
  40297f:	ba 00 20 00 00       	mov    $0x2000,%edx
  402984:	e8 4d fd ff ff       	call   4026d6 <rio_readlineb>
  402989:	48 85 c0             	test   %rax,%rax
  40298c:	7f be                	jg     40294c <submitr+0x1fa>
  40298e:	48 b8 45 72 72 6f 72 	movabs $0x43203a726f727245,%rax
  402995:	3a 20 43 
  402998:	48 ba 6c 69 65 6e 74 	movabs $0x6e7520746e65696c,%rdx
  40299f:	20 75 6e 
  4029a2:	48 89 45 00          	mov    %rax,0x0(%rbp)
  4029a6:	48 89 55 08          	mov    %rdx,0x8(%rbp)
  4029aa:	48 b8 61 62 6c 65 20 	movabs $0x206f7420656c6261,%rax
  4029b1:	74 6f 20 
  4029b4:	48 ba 72 65 61 64 20 	movabs $0x6165682064616572,%rdx
  4029bb:	68 65 61 
  4029be:	48 89 45 10          	mov    %rax,0x10(%rbp)
  4029c2:	48 89 55 18          	mov    %rdx,0x18(%rbp)
  4029c6:	48 b8 64 65 72 73 20 	movabs $0x6f72662073726564,%rax
  4029cd:	66 72 6f 
  4029d0:	48 ba 6d 20 74 68 65 	movabs $0x657220656874206d,%rdx
  4029d7:	20 72 65 
  4029da:	48 89 45 20          	mov    %rax,0x20(%rbp)
  4029de:	48 89 55 28          	mov    %rdx,0x28(%rbp)
  4029e2:	48 b8 73 75 6c 74 20 	movabs $0x72657320746c7573,%rax
  4029e9:	73 65 72 
  4029ec:	48 89 45 30          	mov    %rax,0x30(%rbp)
  4029f0:	c7 45 38 76 65 72 00 	movl   $0x726576,0x38(%rbp)
  4029f7:	89 df                	mov    %ebx,%edi
  4029f9:	e8 f2 e6 ff ff       	call   4010f0 <close@plt>
  4029fe:	b8 ff ff ff ff       	mov    $0xffffffff,%eax
  402a03:	48 81 c4 58 a0 00 00 	add    $0xa058,%rsp
  402a0a:	5b                   	pop    %rbx
  402a0b:	5d                   	pop    %rbp
  402a0c:	41 5c                	pop    %r12
  402a0e:	41 5d                	pop    %r13
  402a10:	41 5e                	pop    %r14
  402a12:	41 5f                	pop    %r15
  402a14:	c3                   	ret
  402a15:	48 b8 45 72 72 6f 72 	movabs $0x43203a726f727245,%rax
  402a1c:	3a 20 43 
  402a1f:	48 ba 6c 69 65 6e 74 	movabs $0x6e7520746e65696c,%rdx
  402a26:	20 75 6e 
  402a29:	48 89 45 00          	mov    %rax,0x0(%rbp)
  402a2d:	48 89 55 08          	mov    %rdx,0x8(%rbp)
  402a31:	48 b8 61 62 6c 65 20 	movabs $0x206f7420656c6261,%rax
  402a38:	74 6f 20 
  402a3b:	48 ba 63 72 65 61 74 	movabs $0x7320657461657263,%rdx
  402a42:	65 20 73 
  402a45:	48 89 45 10          	mov    %rax,0x10(%rbp)
  402a49:	48 89 55 18          	mov    %rdx,0x18(%rbp)
  402a4d:	c7 45 20 6f 63 6b 65 	movl   $0x656b636f,0x20(%rbp)
  402a54:	66 c7 45 24 74 00    	movw   $0x74,0x24(%rbp)
  402a5a:	b8 ff ff ff ff       	mov    $0xffffffff,%eax
  402a5f:	eb a2                	jmp    402a03 <submitr+0x2b1>
  402a61:	48 b8 45 72 72 6f 72 	movabs $0x44203a726f727245,%rax
  402a68:	3a 20 44 
  402a6b:	48 ba 4e 53 20 69 73 	movabs $0x6e7520736920534e,%rdx
  402a72:	20 75 6e 
  402a75:	48 89 45 00          	mov    %rax,0x0(%rbp)
  402a79:	48 89 55 08          	mov    %rdx,0x8(%rbp)
  402a7d:	48 b8 61 62 6c 65 20 	movabs $0x206f7420656c6261,%rax
  402a84:	74 6f 20 
  402a87:	48 ba 72 65 73 6f 6c 	movabs $0x2065766c6f736572,%rdx
  402a8e:	76 65 20 
  402a91:	48 89 45 10          	mov    %rax,0x10(%rbp)
  402a95:	48 89 55 18          	mov    %rdx,0x18(%rbp)
  402a99:	48 b8 73 65 72 76 65 	movabs $0x6120726576726573,%rax
  402aa0:	72 20 61 
  402aa3:	48 89 45 20          	mov    %rax,0x20(%rbp)
  402aa7:	c7 45 28 64 64 72 65 	movl   $0x65726464,0x28(%rbp)
  402aae:	66 c7 45 2c 73 73    	movw   $0x7373,0x2c(%rbp)
  402ab4:	c6 45 2e 00          	movb   $0x0,0x2e(%rbp)
  402ab8:	89 df                	mov    %ebx,%edi
  402aba:	e8 31 e6 ff ff       	call   4010f0 <close@plt>
  402abf:	b8 ff ff ff ff       	mov    $0xffffffff,%eax
  402ac4:	e9 3a ff ff ff       	jmp    402a03 <submitr+0x2b1>
  402ac9:	48 b8 45 72 72 6f 72 	movabs $0x55203a726f727245,%rax
  402ad0:	3a 20 55 
  402ad3:	48 ba 6e 61 62 6c 65 	movabs $0x6f7420656c62616e,%rdx
  402ada:	20 74 6f 
  402add:	48 89 45 00          	mov    %rax,0x0(%rbp)
  402ae1:	48 89 55 08          	mov    %rdx,0x8(%rbp)
  402ae5:	48 b8 20 63 6f 6e 6e 	movabs $0x7463656e6e6f6320,%rax
  402aec:	65 63 74 
  402aef:	48 ba 20 74 6f 20 74 	movabs $0x20656874206f7420,%rdx
  402af6:	68 65 20 
  402af9:	48 89 45 10          	mov    %rax,0x10(%rbp)
  402afd:	48 89 55 18          	mov    %rdx,0x18(%rbp)
  402b01:	c7 45 20 73 65 72 76 	movl   $0x76726573,0x20(%rbp)
  402b08:	66 c7 45 24 65 72    	movw   $0x7265,0x24(%rbp)
  402b0e:	c6 45 26 00          	movb   $0x0,0x26(%rbp)
  402b12:	89 df                	mov    %ebx,%edi
  402b14:	e8 d7 e5 ff ff       	call   4010f0 <close@plt>
  402b19:	b8 ff ff ff ff       	mov    $0xffffffff,%eax
  402b1e:	e9 e0 fe ff ff       	jmp    402a03 <submitr+0x2b1>
  402b23:	48 b8 45 72 72 6f 72 	movabs $0x52203a726f727245,%rax
  402b2a:	3a 20 52 
  402b2d:	48 ba 65 73 75 6c 74 	movabs $0x747320746c757365,%rdx
  402b34:	20 73 74 
  402b37:	48 89 45 00          	mov    %rax,0x0(%rbp)
  402b3b:	48 89 55 08          	mov    %rdx,0x8(%rbp)
  402b3f:	48 b8 72 69 6e 67 20 	movabs $0x6f6f7420676e6972,%rax
  402b46:	74 6f 6f 
  402b49:	48 ba 20 6c 61 72 67 	movabs $0x202e656772616c20,%rdx
  402b50:	65 2e 20 
  402b53:	48 89 45 10          	mov    %rax,0x10(%rbp)
  402b57:	48 89 55 18          	mov    %rdx,0x18(%rbp)
  402b5b:	48 b8 49 6e 63 72 65 	movabs $0x6573616572636e49,%rax
  402b62:	61 73 65 
  402b65:	48 ba 20 53 55 42 4d 	movabs $0x5254494d42555320,%rdx
  402b6c:	49 54 52 
  402b6f:	48 89 45 20          	mov    %rax,0x20(%rbp)
  402b73:	48 89 55 28          	mov    %rdx,0x28(%rbp)
  402b77:	48 b8 5f 4d 41 58 42 	movabs $0x46554258414d5f,%rax
  402b7e:	55 46 00 
  402b81:	48 89 45 30          	mov    %rax,0x30(%rbp)
  402b85:	89 df                	mov    %ebx,%edi
  402b87:	e8 64 e5 ff ff       	call   4010f0 <close@plt>
  402b8c:	b8 ff ff ff ff       	mov    $0xffffffff,%eax
  402b91:	e9 6d fe ff ff       	jmp    402a03 <submitr+0x2b1>
  402b96:	48 b8 45 72 72 6f 72 	movabs $0x52203a726f727245,%rax
  402b9d:	3a 20 52 
  402ba0:	48 ba 65 73 75 6c 74 	movabs $0x747320746c757365,%rdx
  402ba7:	20 73 74 
  402baa:	48 89 45 00          	mov    %rax,0x0(%rbp)
  402bae:	48 89 55 08          	mov    %rdx,0x8(%rbp)
  402bb2:	48 b8 72 69 6e 67 20 	movabs $0x6e6f6320676e6972,%rax
  402bb9:	63 6f 6e 
  402bbc:	48 ba 74 61 69 6e 73 	movabs $0x6e6120736e696174,%rdx
  402bc3:	20 61 6e 
  402bc6:	48 89 45 10          	mov    %rax,0x10(%rbp)
  402bca:	48 89 55 18          	mov    %rdx,0x18(%rbp)
  402bce:	48 b8 20 69 6c 6c 65 	movabs $0x6c6167656c6c6920,%rax
  402bd5:	67 61 6c 
  402bd8:	48 ba 20 6f 72 20 75 	movabs $0x72706e7520726f20,%rdx
  402bdf:	6e 70 72 
  402be2:	48 89 45 20          	mov    %rax,0x20(%rbp)
  402be6:	48 89 55 28          	mov    %rdx,0x28(%rbp)
  402bea:	48 b8 69 6e 74 61 62 	movabs $0x20656c6261746e69,%rax
  402bf1:	6c 65 20 
  402bf4:	48 ba 63 68 61 72 61 	movabs $0x6574636172616863,%rdx
  402bfb:	63 74 65 
  402bfe:	48 89 45 30          	mov    %rax,0x30(%rbp)
  402c02:	48 89 55 38          	mov    %rdx,0x38(%rbp)
  402c06:	66 c7 45 40 72 2e    	movw   $0x2e72,0x40(%rbp)
  402c0c:	c6 45 42 00          	movb   $0x0,0x42(%rbp)
  402c10:	89 df                	mov    %ebx,%edi
  402c12:	e8 d9 e4 ff ff       	call   4010f0 <close@plt>
  402c17:	b8 ff ff ff ff       	mov    $0xffffffff,%eax
  402c1c:	e9 e2 fd ff ff       	jmp    402a03 <submitr+0x2b1>
  402c21:	48 b8 45 72 72 6f 72 	movabs $0x43203a726f727245,%rax
  402c28:	3a 20 43 
  402c2b:	48 ba 6c 69 65 6e 74 	movabs $0x6e7520746e65696c,%rdx
  402c32:	20 75 6e 
  402c35:	48 89 45 00          	mov    %rax,0x0(%rbp)
  402c39:	48 89 55 08          	mov    %rdx,0x8(%rbp)
  402c3d:	48 b8 61 62 6c 65 20 	movabs $0x206f7420656c6261,%rax
  402c44:	74 6f 20 
  402c47:	48 ba 77 72 69 74 65 	movabs $0x6f74206574697277,%rdx
  402c4e:	20 74 6f 
  402c51:	48 89 45 10          	mov    %rax,0x10(%rbp)
  402c55:	48 89 55 18          	mov    %rdx,0x18(%rbp)
  402c59:	48 b8 20 74 68 65 20 	movabs $0x7365722065687420,%rax
  402c60:	72 65 73 
  402c63:	48 ba 75 6c 74 20 73 	movabs $0x7672657320746c75,%rdx
  402c6a:	65 72 76 
  402c6d:	48 89 45 20          	mov    %rax,0x20(%rbp)
  402c71:	48 89 55 28          	mov    %rdx,0x28(%rbp)
  402c75:	66 c7 45 30 65 72    	movw   $0x7265,0x30(%rbp)
  402c7b:	c6 45 32 00          	movb   $0x0,0x32(%rbp)
  402c7f:	89 df                	mov    %ebx,%edi
  402c81:	e8 6a e4 ff ff       	call   4010f0 <close@plt>
  402c86:	b8 ff ff ff ff       	mov    $0xffffffff,%eax
  402c8b:	e9 73 fd ff ff       	jmp    402a03 <submitr+0x2b1>
  402c90:	48 b8 45 72 72 6f 72 	movabs $0x43203a726f727245,%rax
  402c97:	3a 20 43 
  402c9a:	48 ba 6c 69 65 6e 74 	movabs $0x6e7520746e65696c,%rdx
  402ca1:	20 75 6e 
  402ca4:	48 89 45 00          	mov    %rax,0x0(%rbp)
  402ca8:	48 89 55 08          	mov    %rdx,0x8(%rbp)
  402cac:	48 b8 61 62 6c 65 20 	movabs $0x206f7420656c6261,%rax
  402cb3:	74 6f 20 
  402cb6:	48 ba 72 65 61 64 20 	movabs $0x7269662064616572,%rdx
  402cbd:	66 69 72 
  402cc0:	48 89 45 10          	mov    %rax,0x10(%rbp)
  402cc4:	48 89 55 18          	mov    %rdx,0x18(%rbp)
  402cc8:	48 b8 73 74 20 68 65 	movabs $0x6564616568207473,%rax
  402ccf:	61 64 65 
  402cd2:	48 ba 72 20 66 72 6f 	movabs $0x72206d6f72662072,%rdx
  402cd9:	6d 20 72 
  402cdc:	48 89 45 20          	mov    %rax,0x20(%rbp)
  402ce0:	48 89 55 28          	mov    %rdx,0x28(%rbp)
  402ce4:	48 b8 65 73 75 6c 74 	movabs $0x657320746c757365,%rax
  402ceb:	20 73 65 
  402cee:	48 89 45 30          	mov    %rax,0x30(%rbp)
  402cf2:	c7 45 38 72 76 65 72 	movl   $0x72657672,0x38(%rbp)
  402cf9:	c6 45 3c 00          	movb   $0x0,0x3c(%rbp)
  402cfd:	89 df                	mov    %ebx,%edi
  402cff:	e8 ec e3 ff ff       	call   4010f0 <close@plt>
  402d04:	b8 ff ff ff ff       	mov    $0xffffffff,%eax
  402d09:	e9 f5 fc ff ff       	jmp    402a03 <submitr+0x2b1>
  402d0e:	48 8d b4 24 30 60 00 	lea    0x6030(%rsp),%rsi
  402d15:	00 
  402d16:	48 8d bc 24 30 80 00 	lea    0x8030(%rsp),%rdi
  402d1d:	00 
  402d1e:	ba 00 20 00 00       	mov    $0x2000,%edx
  402d23:	e8 ae f9 ff ff       	call   4026d6 <rio_readlineb>
  402d28:	48 85 c0             	test   %rax,%rax
  402d2b:	0f 8e 97 00 00 00    	jle    402dc8 <submitr+0x676>
  402d31:	8b 94 24 2c 20 00 00 	mov    0x202c(%rsp),%edx
  402d38:	81 fa c8 00 00 00    	cmp    $0xc8,%edx
  402d3e:	0f 85 08 01 00 00    	jne    402e4c <submitr+0x6fa>
  402d44:	48 8d b4 24 30 60 00 	lea    0x6030(%rsp),%rsi
  402d4b:	00 
  402d4c:	48 89 ef             	mov    %rbp,%rdi
  402d4f:	e8 1c e3 ff ff       	call   401070 <strcpy@plt>
  402d54:	89 df                	mov    %ebx,%edi
  402d56:	e8 95 e3 ff ff       	call   4010f0 <close@plt>
  402d5b:	b9 04 00 00 00       	mov    $0x4,%ecx
  402d60:	48 8d 3d 06 1a 00 00 	lea    0x1a06(%rip),%rdi        # 40476d <trans_char+0xbd>
  402d67:	48 89 ee             	mov    %rbp,%rsi
  402d6a:	f3 a6                	repz cmpsb %es:(%rdi),%ds:(%rsi)
  402d6c:	0f 97 c0             	seta   %al
  402d6f:	1c 00                	sbb    $0x0,%al
  402d71:	0f be c0             	movsbl %al,%eax
  402d74:	85 c0                	test   %eax,%eax
  402d76:	0f 84 87 fc ff ff    	je     402a03 <submitr+0x2b1>
  402d7c:	b9 05 00 00 00       	mov    $0x5,%ecx
  402d81:	48 8d 3d e9 19 00 00 	lea    0x19e9(%rip),%rdi        # 404771 <trans_char+0xc1>
  402d88:	48 89 ee             	mov    %rbp,%rsi
  402d8b:	f3 a6                	repz cmpsb %es:(%rdi),%ds:(%rsi)
  402d8d:	0f 97 c0             	seta   %al
  402d90:	1c 00                	sbb    $0x0,%al
  402d92:	0f be c0             	movsbl %al,%eax
  402d95:	85 c0                	test   %eax,%eax
  402d97:	0f 84 66 fc ff ff    	je     402a03 <submitr+0x2b1>
  402d9d:	b9 03 00 00 00       	mov    $0x3,%ecx
  402da2:	48 8d 3d cd 19 00 00 	lea    0x19cd(%rip),%rdi        # 404776 <trans_char+0xc6>
  402da9:	48 89 ee             	mov    %rbp,%rsi
  402dac:	f3 a6                	repz cmpsb %es:(%rdi),%ds:(%rsi)
  402dae:	0f 97 c0             	seta   %al
  402db1:	1c 00                	sbb    $0x0,%al
  402db3:	0f be c0             	movsbl %al,%eax
  402db6:	85 c0                	test   %eax,%eax
  402db8:	0f 84 45 fc ff ff    	je     402a03 <submitr+0x2b1>
  402dbe:	b8 ff ff ff ff       	mov    $0xffffffff,%eax
  402dc3:	e9 3b fc ff ff       	jmp    402a03 <submitr+0x2b1>
  402dc8:	48 b8 45 72 72 6f 72 	movabs $0x43203a726f727245,%rax
  402dcf:	3a 20 43 
  402dd2:	48 ba 6c 69 65 6e 74 	movabs $0x6e7520746e65696c,%rdx
  402dd9:	20 75 6e 
  402ddc:	48 89 45 00          	mov    %rax,0x0(%rbp)
  402de0:	48 89 55 08          	mov    %rdx,0x8(%rbp)
  402de4:	48 b8 61 62 6c 65 20 	movabs $0x206f7420656c6261,%rax
  402deb:	74 6f 20 
  402dee:	48 ba 72 65 61 64 20 	movabs $0x6174732064616572,%rdx
  402df5:	73 74 61 
  402df8:	48 89 45 10          	mov    %rax,0x10(%rbp)
  402dfc:	48 89 55 18          	mov    %rdx,0x18(%rbp)
  402e00:	48 b8 74 75 73 20 6d 	movabs $0x7373656d20737574,%rax
  402e07:	65 73 73 
  402e0a:	48 ba 61 67 65 20 66 	movabs $0x6d6f726620656761,%rdx
  402e11:	72 6f 6d 
  402e14:	48 89 45 20          	mov    %rax,0x20(%rbp)
  402e18:	48 89 55 28          	mov    %rdx,0x28(%rbp)
  402e1c:	48 b8 20 72 65 73 75 	movabs $0x20746c7573657220,%rax
  402e23:	6c 74 20 
  402e26:	48 89 45 30          	mov    %rax,0x30(%rbp)
  402e2a:	c7 45 38 73 65 72 76 	movl   $0x76726573,0x38(%rbp)
  402e31:	66 c7 45 3c 65 72    	movw   $0x7265,0x3c(%rbp)
  402e37:	c6 45 3e 00          	movb   $0x0,0x3e(%rbp)
  402e3b:	89 df                	mov    %ebx,%edi
  402e3d:	e8 ae e2 ff ff       	call   4010f0 <close@plt>
  402e42:	b8 ff ff ff ff       	mov    $0xffffffff,%eax
  402e47:	e9 b7 fb ff ff       	jmp    402a03 <submitr+0x2b1>
  402e4c:	48 8d 4c 24 20       	lea    0x20(%rsp),%rcx
  402e51:	48 8d 35 d0 18 00 00 	lea    0x18d0(%rip),%rsi        # 404728 <trans_char+0x78>
  402e58:	48 89 ef             	mov    %rbp,%rdi
  402e5b:	b8 00 00 00 00       	mov    $0x0,%eax
  402e60:	e8 8b e3 ff ff       	call   4011f0 <sprintf@plt>
  402e65:	89 df                	mov    %ebx,%edi
  402e67:	e8 84 e2 ff ff       	call   4010f0 <close@plt>
  402e6c:	b8 ff ff ff ff       	mov    $0xffffffff,%eax
  402e71:	e9 8d fb ff ff       	jmp    402a03 <submitr+0x2b1>

0000000000402e76 <init_timeout>:
  402e76:	85 ff                	test   %edi,%edi
  402e78:	74 26                	je     402ea0 <init_timeout+0x2a>
  402e7a:	53                   	push   %rbx
  402e7b:	89 fb                	mov    %edi,%ebx
  402e7d:	78 1a                	js     402e99 <init_timeout+0x23>
  402e7f:	48 8d 35 71 f6 ff ff 	lea    -0x98f(%rip),%rsi        # 4024f7 <sigalrm_handler>
  402e86:	bf 0e 00 00 00       	mov    $0xe,%edi
  402e8b:	e8 80 e2 ff ff       	call   401110 <signal@plt>
  402e90:	89 df                	mov    %ebx,%edi
  402e92:	e8 49 e2 ff ff       	call   4010e0 <alarm@plt>
  402e97:	5b                   	pop    %rbx
  402e98:	c3                   	ret
  402e99:	bb 00 00 00 00       	mov    $0x0,%ebx
  402e9e:	eb df                	jmp    402e7f <init_timeout+0x9>
  402ea0:	c3                   	ret

0000000000402ea1 <init_driver>:
  402ea1:	41 54                	push   %r12
  402ea3:	55                   	push   %rbp
  402ea4:	53                   	push   %rbx
  402ea5:	48 83 ec 10          	sub    $0x10,%rsp
  402ea9:	48 89 fd             	mov    %rdi,%rbp
  402eac:	be 01 00 00 00       	mov    $0x1,%esi
  402eb1:	bf 0d 00 00 00       	mov    $0xd,%edi
  402eb6:	e8 55 e2 ff ff       	call   401110 <signal@plt>
  402ebb:	be 01 00 00 00       	mov    $0x1,%esi
  402ec0:	bf 1d 00 00 00       	mov    $0x1d,%edi
  402ec5:	e8 46 e2 ff ff       	call   401110 <signal@plt>
  402eca:	be 01 00 00 00       	mov    $0x1,%esi
  402ecf:	bf 1d 00 00 00       	mov    $0x1d,%edi
  402ed4:	e8 37 e2 ff ff       	call   401110 <signal@plt>
  402ed9:	ba 00 00 00 00       	mov    $0x0,%edx
  402ede:	be 01 00 00 00       	mov    $0x1,%esi
  402ee3:	bf 02 00 00 00       	mov    $0x2,%edi
  402ee8:	e8 43 e3 ff ff       	call   401230 <socket@plt>
  402eed:	85 c0                	test   %eax,%eax
  402eef:	0f 88 83 00 00 00    	js     402f78 <init_driver+0xd7>
  402ef5:	89 c3                	mov    %eax,%ebx
  402ef7:	48 8d 3d 7b 18 00 00 	lea    0x187b(%rip),%rdi        # 404779 <trans_char+0xc9>
  402efe:	e8 1d e2 ff ff       	call   401120 <gethostbyname@plt>
  402f03:	48 85 c0             	test   %rax,%rax
  402f06:	0f 84 b8 00 00 00    	je     402fc4 <init_driver+0x123>
  402f0c:	49 89 e4             	mov    %rsp,%r12
  402f0f:	48 c7 04 24 00 00 00 	movq   $0x0,(%rsp)
  402f16:	00 
  402f17:	48 c7 44 24 08 00 00 	movq   $0x0,0x8(%rsp)
  402f1e:	00 00 
  402f20:	66 c7 04 24 02 00    	movw   $0x2,(%rsp)
  402f26:	48 8b 48 18          	mov    0x18(%rax),%rcx
  402f2a:	48 63 50 14          	movslq 0x14(%rax),%rdx
  402f2e:	48 8d 7c 24 04       	lea    0x4(%rsp),%rdi
  402f33:	48 8b 31             	mov    (%rcx),%rsi
  402f36:	e8 65 e2 ff ff       	call   4011a0 <memmove@plt>
  402f3b:	66 c7 44 24 02 3c a4 	movw   $0xa43c,0x2(%rsp)
  402f42:	ba 10 00 00 00       	mov    $0x10,%edx
  402f47:	4c 89 e6             	mov    %r12,%rsi
  402f4a:	89 df                	mov    %ebx,%edi
  402f4c:	e8 bf e2 ff ff       	call   401210 <connect@plt>
  402f51:	85 c0                	test   %eax,%eax
  402f53:	0f 88 d3 00 00 00    	js     40302c <init_driver+0x18b>
  402f59:	89 df                	mov    %ebx,%edi
  402f5b:	e8 90 e1 ff ff       	call   4010f0 <close@plt>
  402f60:	66 c7 45 00 4f 4b    	movw   $0x4b4f,0x0(%rbp)
  402f66:	c6 45 02 00          	movb   $0x0,0x2(%rbp)
  402f6a:	b8 00 00 00 00       	mov    $0x0,%eax
  402f6f:	48 83 c4 10          	add    $0x10,%rsp
  402f73:	5b                   	pop    %rbx
  402f74:	5d                   	pop    %rbp
  402f75:	41 5c                	pop    %r12
  402f77:	c3                   	ret
  402f78:	48 b8 45 72 72 6f 72 	movabs $0x43203a726f727245,%rax
  402f7f:	3a 20 43 
  402f82:	48 ba 6c 69 65 6e 74 	movabs $0x6e7520746e65696c,%rdx
  402f89:	20 75 6e 
  402f8c:	48 89 45 00          	mov    %rax,0x0(%rbp)
  402f90:	48 89 55 08          	mov    %rdx,0x8(%rbp)
  402f94:	48 b8 61 62 6c 65 20 	movabs $0x206f7420656c6261,%rax
  402f9b:	74 6f 20 
  402f9e:	48 ba 63 72 65 61 74 	movabs $0x7320657461657263,%rdx
  402fa5:	65 20 73 
  402fa8:	48 89 45 10          	mov    %rax,0x10(%rbp)
  402fac:	48 89 55 18          	mov    %rdx,0x18(%rbp)
  402fb0:	c7 45 20 6f 63 6b 65 	movl   $0x656b636f,0x20(%rbp)
  402fb7:	66 c7 45 24 74 00    	movw   $0x74,0x24(%rbp)
  402fbd:	b8 ff ff ff ff       	mov    $0xffffffff,%eax
  402fc2:	eb ab                	jmp    402f6f <init_driver+0xce>
  402fc4:	48 b8 45 72 72 6f 72 	movabs $0x44203a726f727245,%rax
  402fcb:	3a 20 44 
  402fce:	48 ba 4e 53 20 69 73 	movabs $0x6e7520736920534e,%rdx
  402fd5:	20 75 6e 
  402fd8:	48 89 45 00          	mov    %rax,0x0(%rbp)
  402fdc:	48 89 55 08          	mov    %rdx,0x8(%rbp)
  402fe0:	48 b8 61 62 6c 65 20 	movabs $0x206f7420656c6261,%rax
  402fe7:	74 6f 20 
  402fea:	48 ba 72 65 73 6f 6c 	movabs $0x2065766c6f736572,%rdx
  402ff1:	76 65 20 
  402ff4:	48 89 45 10          	mov    %rax,0x10(%rbp)
  402ff8:	48 89 55 18          	mov    %rdx,0x18(%rbp)
  402ffc:	48 b8 73 65 72 76 65 	movabs $0x6120726576726573,%rax
  403003:	72 20 61 
  403006:	48 89 45 20          	mov    %rax,0x20(%rbp)
  40300a:	c7 45 28 64 64 72 65 	movl   $0x65726464,0x28(%rbp)
  403011:	66 c7 45 2c 73 73    	movw   $0x7373,0x2c(%rbp)
  403017:	c6 45 2e 00          	movb   $0x0,0x2e(%rbp)
  40301b:	89 df                	mov    %ebx,%edi
  40301d:	e8 ce e0 ff ff       	call   4010f0 <close@plt>
  403022:	b8 ff ff ff ff       	mov    $0xffffffff,%eax
  403027:	e9 43 ff ff ff       	jmp    402f6f <init_driver+0xce>
  40302c:	48 b8 32 30 32 2e 31 	movabs $0x2e3032312e323032,%rax
  403033:	32 30 2e 
  403036:	48 89 45 00          	mov    %rax,0x0(%rbp)
  40303a:	c7 45 08 34 30 2e 38 	movl   $0x382e3034,0x8(%rbp)
  403041:	66 c7 45 0c 35 00    	movw   $0x35,0xc(%rbp)
  403047:	48 b8 45 72 72 6f 72 	movabs $0x55203a726f727245,%rax
  40304e:	3a 20 55 
  403051:	48 ba 6e 61 62 6c 65 	movabs $0x6f7420656c62616e,%rdx
  403058:	20 74 6f 
  40305b:	48 89 45 00          	mov    %rax,0x0(%rbp)
  40305f:	48 89 55 08          	mov    %rdx,0x8(%rbp)
  403063:	48 b8 20 63 6f 6e 6e 	movabs $0x7463656e6e6f6320,%rax
  40306a:	65 63 74 
  40306d:	48 ba 20 74 6f 20 73 	movabs $0x76726573206f7420,%rdx
  403074:	65 72 76 
  403077:	48 89 45 10          	mov    %rax,0x10(%rbp)
  40307b:	48 89 55 18          	mov    %rdx,0x18(%rbp)
  40307f:	66 c7 45 20 65 72    	movw   $0x7265,0x20(%rbp)
  403085:	c6 45 22 00          	movb   $0x0,0x22(%rbp)
  403089:	89 df                	mov    %ebx,%edi
  40308b:	e8 60 e0 ff ff       	call   4010f0 <close@plt>
  403090:	b8 ff ff ff ff       	mov    $0xffffffff,%eax
  403095:	e9 d5 fe ff ff       	jmp    402f6f <init_driver+0xce>

000000000040309a <driver_post>:
  40309a:	53                   	push   %rbx
  40309b:	4c 89 cb             	mov    %r9,%rbx
  40309e:	45 85 c0             	test   %r8d,%r8d
  4030a1:	75 18                	jne    4030bb <driver_post+0x21>
  4030a3:	48 85 ff             	test   %rdi,%rdi
  4030a6:	74 05                	je     4030ad <driver_post+0x13>
  4030a8:	80 3f 00             	cmpb   $0x0,(%rdi)
  4030ab:	75 32                	jne    4030df <driver_post+0x45>
  4030ad:	66 c7 03 4f 4b       	movw   $0x4b4f,(%rbx)
  4030b2:	c6 43 02 00          	movb   $0x0,0x2(%rbx)
  4030b6:	44 89 c0             	mov    %r8d,%eax
  4030b9:	5b                   	pop    %rbx
  4030ba:	c3                   	ret
  4030bb:	48 89 ce             	mov    %rcx,%rsi
  4030be:	48 8d 3d c2 16 00 00 	lea    0x16c2(%rip),%rdi        # 404787 <trans_char+0xd7>
  4030c5:	b8 00 00 00 00       	mov    $0x0,%eax
  4030ca:	e8 f1 df ff ff       	call   4010c0 <printf@plt>
  4030cf:	66 c7 03 4f 4b       	movw   $0x4b4f,(%rbx)
  4030d4:	c6 43 02 00          	movb   $0x0,0x2(%rbx)
  4030d8:	b8 00 00 00 00       	mov    $0x0,%eax
  4030dd:	eb da                	jmp    4030b9 <driver_post+0x1f>
  4030df:	48 83 ec 08          	sub    $0x8,%rsp
  4030e3:	41 51                	push   %r9
  4030e5:	49 89 c9             	mov    %rcx,%r9
  4030e8:	49 89 d0             	mov    %rdx,%r8
  4030eb:	48 89 f9             	mov    %rdi,%rcx
  4030ee:	48 89 f2             	mov    %rsi,%rdx
  4030f1:	be a4 3c 00 00       	mov    $0x3ca4,%esi
  4030f6:	48 8d 3d 7c 16 00 00 	lea    0x167c(%rip),%rdi        # 404779 <trans_char+0xc9>
  4030fd:	e8 50 f6 ff ff       	call   402752 <submitr>
  403102:	48 83 c4 10          	add    $0x10,%rsp
  403106:	eb b1                	jmp    4030b9 <driver_post+0x1f>

0000000000403108 <check>:
  403108:	89 f8                	mov    %edi,%eax
  40310a:	c1 e8 1c             	shr    $0x1c,%eax
  40310d:	74 1d                	je     40312c <check+0x24>
  40310f:	b9 00 00 00 00       	mov    $0x0,%ecx
  403114:	83 f9 1f             	cmp    $0x1f,%ecx
  403117:	7f 0d                	jg     403126 <check+0x1e>
  403119:	89 f8                	mov    %edi,%eax
  40311b:	d3 e8                	shr    %cl,%eax
  40311d:	3c 0a                	cmp    $0xa,%al
  40311f:	74 11                	je     403132 <check+0x2a>
  403121:	83 c1 08             	add    $0x8,%ecx
  403124:	eb ee                	jmp    403114 <check+0xc>
  403126:	b8 01 00 00 00       	mov    $0x1,%eax
  40312b:	c3                   	ret
  40312c:	b8 00 00 00 00       	mov    $0x0,%eax
  403131:	c3                   	ret
  403132:	b8 00 00 00 00       	mov    $0x0,%eax
  403137:	c3                   	ret

0000000000403138 <gencookie>:
  403138:	53                   	push   %rbx
  403139:	83 c7 01             	add    $0x1,%edi
  40313c:	e8 0f df ff ff       	call   401050 <srandom@plt>
  403141:	e8 2a e0 ff ff       	call   401170 <random@plt>
  403146:	48 89 c7             	mov    %rax,%rdi
  403149:	89 c3                	mov    %eax,%ebx
  40314b:	e8 b8 ff ff ff       	call   403108 <check>
  403150:	85 c0                	test   %eax,%eax
  403152:	74 ed                	je     403141 <gencookie+0x9>
  403154:	89 d8                	mov    %ebx,%eax
  403156:	5b                   	pop    %rbx
  403157:	c3                   	ret
  403158:	0f 1f 84 00 00 00 00 	nopl   0x0(%rax,%rax,1)
  40315f:	00 

0000000000403160 <__libc_csu_init>:
  403160:	41 57                	push   %r15
  403162:	4c 8d 3d a7 3c 00 00 	lea    0x3ca7(%rip),%r15        # 406e10 <__frame_dummy_init_array_entry>
  403169:	41 56                	push   %r14
  40316b:	49 89 d6             	mov    %rdx,%r14
  40316e:	41 55                	push   %r13
  403170:	49 89 f5             	mov    %rsi,%r13
  403173:	41 54                	push   %r12
  403175:	41 89 fc             	mov    %edi,%r12d
  403178:	55                   	push   %rbp
  403179:	48 8d 2d 98 3c 00 00 	lea    0x3c98(%rip),%rbp        # 406e18 <__do_global_dtors_aux_fini_array_entry>
  403180:	53                   	push   %rbx
  403181:	4c 29 fd             	sub    %r15,%rbp
  403184:	48 83 ec 08          	sub    $0x8,%rsp
  403188:	e8 73 de ff ff       	call   401000 <_init>
  40318d:	48 c1 fd 03          	sar    $0x3,%rbp
  403191:	74 1b                	je     4031ae <__libc_csu_init+0x4e>
  403193:	31 db                	xor    %ebx,%ebx
  403195:	0f 1f 00             	nopl   (%rax)
  403198:	4c 89 f2             	mov    %r14,%rdx
  40319b:	4c 89 ee             	mov    %r13,%rsi
  40319e:	44 89 e7             	mov    %r12d,%edi
  4031a1:	41 ff 14 df          	call   *(%r15,%rbx,8)
  4031a5:	48 83 c3 01          	add    $0x1,%rbx
  4031a9:	48 39 dd             	cmp    %rbx,%rbp
  4031ac:	75 ea                	jne    403198 <__libc_csu_init+0x38>
  4031ae:	48 83 c4 08          	add    $0x8,%rsp
  4031b2:	5b                   	pop    %rbx
  4031b3:	5d                   	pop    %rbp
  4031b4:	41 5c                	pop    %r12
  4031b6:	41 5d                	pop    %r13
  4031b8:	41 5e                	pop    %r14
  4031ba:	41 5f                	pop    %r15
  4031bc:	c3                   	ret
  4031bd:	0f 1f 00             	nopl   (%rax)

00000000004031c0 <__libc_csu_fini>:
  4031c0:	c3                   	ret

Disassembly of section .fini:

00000000004031c4 <_fini>:
  4031c4:	48 83 ec 08          	sub    $0x8,%rsp
  4031c8:	48 83 c4 08          	add    $0x8,%rsp
  4031cc:	c3                   	ret
